
================================================================================

Image Symbol Table

    Mapping Symbols

    Sym    Value        Execution Region

    $a     0x0038701c   ER_RO
    $d     0x0038704c   ER_RO
    $a     0x00387054   ER_RO
    $p     0x0038705c   ER_RO
    $p     0x00387078   ER_RO
    $p     0x00387094   ER_RO
    $p     0x003870b4   ER_RO
    $p     0x003870d0   ER_RO
    $p     0x003870e0   ER_RO
    $p     0x00387114   ER_RO
    $p     0x00387130   ER_RO
    $p     0x0038714c   ER_RO
    $p     0x00387164   ER_RO
    $p     0x00387180   ER_RO
    $p     0x00387190   ER_RO
    $p     0x003871a0   ER_RO
    $d     0x003871ac   ER_RO
    $a     0x003871d0   ER_RO
    $p     0x00387230   ER_RO
    $p     0x00387244   ER_RO
    $p     0x00387250   ER_RO
    $p     0x00387264   ER_RO
    $p     0x00387270   ER_RO
    $p     0x00387288   ER_RO
    $p     0x00387294   ER_RO
    $p     0x003872ac   ER_RO
    $p     0x003872d0   ER_RO
    $p     0x003872e8   ER_RO
    $p     0x00387308   ER_RO
    $d     0x00387314   ER_RO
    $a     0x003873f0   ER_RO
    $p     0x00387484   ER_RO
    $d     0x00387488   ER_RO
    $a     0x00387490   ER_RO
    $p     0x0038754c   ER_RO
    $d     0x00387554   ER_RO
    $a     0x00387564   ER_RO
    $p     0x003875f0   ER_RO
    $p     0x00387630   ER_RO
    $d     0x00387638   ER_RO
    $a     0x00387644   ER_RO
    $p     0x003876d0   ER_RO
    $p     0x00387710   ER_RO
    $p     0x003877d0   ER_RO
    $d     0x003877d8   ER_RO
    $a     0x003877e4   ER_RO
    $p     0x00387858   ER_RO
    $p     0x00387880   ER_RO
    $p     0x003878a8   ER_RO
    $p     0x003878bc   ER_RO
    $p     0x003879c0   ER_RO
    $d     0x003879c8   ER_RO
    $a     0x00387a80   ER_RO
    $p     0x00387ac4   ER_RO
    $p     0x00387aec   ER_RO
    $p     0x00387b34   ER_RO
    $p     0x00387b48   ER_RO
    $p     0x00387b5c   ER_RO
    $p     0x00387b70   ER_RO
    $p     0x00387b84   ER_RO
    $p     0x00387b98   ER_RO
    $p     0x00387bac   ER_RO
    $p     0x00387bc0   ER_RO
    $p     0x00387bd4   ER_RO
    $p     0x00387be8   ER_RO
    $p     0x00387c14   ER_RO
    $d     0x00387c3c   ER_RO
    $a     0x00387d40   ER_RO
    $p     0x00387dd0   ER_RO
    $d     0x00387dd8   ER_RO
    $a     0x00387de4   ER_RO
    $p     0x00387f3c   ER_RO
    $d     0x00387f44   ER_RO
    $a     0x00387f6c   ER_RO
    $p     0x00387ffc   ER_RO
    $d     0x00388004   ER_RO
    $a     0x00388024   ER_RO
    $p     0x00388160   ER_RO
    $d     0x00388168   ER_RO
    $a     0x00388194   ER_RO
    $p     0x00388270   ER_RO
    $d     0x00388278   ER_RO
    $a     0x003882ac   ER_RO
    $p     0x0038849c   ER_RO
    $d     0x003884c8   ER_RO
    $a     0x00388528   ER_RO
    $p     0x00388680   ER_RO
    $d     0x00388688   ER_RO
    $f     0x00388690   ER_RO
    $f     0x0038869c   ER_RO
    $f     0x003886a4   ER_RO
    $f     0x003886b0   ER_RO
    $f     0x003886b8   ER_RO
    $f     0x003886c8   ER_RO
    $f     0x003886d4   ER_RO
    $f     0x003886dc   ER_RO
    $f     0x003886e8   ER_RO
    $f     0x003886f4   ER_RO
    $f     0x00388704   ER_RO
    $f     0x00388710   ER_RO
    $a     0x00388750   ER_RO
    $p     0x0038876c   ER_RO
    $d     0x00388770   ER_RO
    $f     0x00388770   ER_RO
    $a     0x00388778   ER_RO
    $p     0x00388798   ER_RO
    $d     0x003887b8   ER_RO
    $a     0x003887d4   ER_RO
    $p     0x003887e8   ER_RO
    $d     0x00388804   ER_RO
    $a     0x00388820   ER_RO
    $p     0x00388844   ER_RO
    $p     0x00388848   ER_RO
    $p     0x00388864   ER_RO
    $d     0x00388868   ER_RO
    $a     0x00388888   ER_RO
    $p     0x003888b0   ER_RO
    $p     0x003888bc   ER_RO
    $p     0x003888e0   ER_RO
    $p     0x00388900   ER_RO
    $p     0x00388954   ER_RO
    $d     0x0038895c   ER_RO
    $f     0x00388998   ER_RO
    $f     0x003889a4   ER_RO
    $a     0x003889a8   ER_RO
    $p     0x00388a08   ER_RO
    $p     0x00388a30   ER_RO
    $p     0x00388a68   ER_RO
    $p     0x00388a90   ER_RO
    $p     0x00388aac   ER_RO
    $p     0x00388ab4   ER_RO
    $p     0x00388b80   ER_RO
    $d     0x00388b88   ER_RO
    $f     0x00388b88   ER_RO
    $a     0x00388bbc   ER_RO
    $p     0x00388be0   ER_RO
    $d     0x00388bf4   ER_RO
    $a     0x00388c18   ER_RO
    $p     0x00388c34   ER_RO
    $d     0x00388c38   ER_RO
    $f     0x00388c38   ER_RO
    $a     0x00388c40   ER_RO
    $p     0x00388c74   ER_RO
    $d     0x00388c94   ER_RO
    $a     0x00388cb8   ER_RO
    $p     0x00388cd8   ER_RO
    $p     0x00388d38   ER_RO
    $d     0x00388d88   ER_RO
    $a     0x00388dc8   ER_RO
    $p     0x00388e08   ER_RO
    $p     0x00388e18   ER_RO
    $d     0x00388e74   ER_RO
    $a     0x00388eac   ER_RO
    $p     0x00388ec0   ER_RO
    $p     0x00388edc   ER_RO
    $d     0x00388f38   ER_RO
    $a     0x00388f50   ER_RO
    $p     0x00388fa0   ER_RO
    $p     0x00388fd4   ER_RO
    $p     0x00388fec   ER_RO
    $p     0x0038901c   ER_RO
    $p     0x00389068   ER_RO
    $p     0x0038909c   ER_RO
    $p     0x003890c8   ER_RO
    $d     0x003890d4   ER_RO
    $f     0x0038910c   ER_RO
    $f     0x00389114   ER_RO
    $a     0x0038911c   ER_RO
    $p     0x00389148   ER_RO
    $p     0x00389168   ER_RO
    $p     0x003891a0   ER_RO
    $d     0x003891a8   ER_RO
    $a     0x003891d4   ER_RO
    $p     0x00389200   ER_RO
    $d     0x00389220   ER_RO
    $a     0x00389248   ER_RO
    $p     0x00389258   ER_RO
    $p     0x0038927c   ER_RO
    $d     0x00389284   ER_RO
    $f     0x00389284   ER_RO
    $a     0x00389290   ER_RO
    $p     0x0038931c   ER_RO
    $p     0x003893f0   ER_RO
    $d     0x00389470   ER_RO
    $f     0x00389480   ER_RO
    $a     0x00389498   ER_RO
    $d     0x00389648   ER_RO
    $a     0x00389668   ER_RO
    $p     0x00389684   ER_RO
    $p     0x003896e0   ER_RO
    $d     0x003896ec   ER_RO
    $a     0x0038971c   ER_RO
    $p     0x00389750   ER_RO
    $p     0x0038975c   ER_RO
    $p     0x0038977c   ER_RO
    $p     0x00389874   ER_RO
    $p     0x00389888   ER_RO
    $p     0x003898d8   ER_RO
    $p     0x00389908   ER_RO
    $p     0x0038991c   ER_RO
    $p     0x00389a6c   ER_RO
    $p     0x00389a7c   ER_RO
    $p     0x00389a90   ER_RO
    $p     0x00389ab8   ER_RO
    $p     0x00389ac8   ER_RO
    $d     0x00389ad0   ER_RO
    $a     0x00389b40   ER_RO
    $p     0x00389b80   ER_RO
    $p     0x00389b8c   ER_RO
    $p     0x00389bd4   ER_RO
    $p     0x00389bec   ER_RO
    $p     0x00389bfc   ER_RO
    $p     0x00389c10   ER_RO
    $p     0x00389c20   ER_RO
    $p     0x00389c48   ER_RO
    $d     0x00389c50   ER_RO
    $f     0x00389c74   ER_RO
    $a     0x00389c7c   ER_RO
    $p     0x00389cac   ER_RO
    $p     0x00389cc8   ER_RO
    $p     0x00389cfc   ER_RO
    $p     0x00389d08   ER_RO
    $p     0x00389d1c   ER_RO
    $p     0x00389d34   ER_RO
    $p     0x00389d44   ER_RO
    $p     0x00389d70   ER_RO
    $p     0x00389d7c   ER_RO
    $d     0x00389d84   ER_RO
    $a     0x00389dac   ER_RO
    $p     0x00389dc8   ER_RO
    $p     0x00389de0   ER_RO
    $p     0x00389e94   ER_RO
    $p     0x00389eb8   ER_RO
    $d     0x00389ec4   ER_RO
    $f     0x00389ef0   ER_RO
    $a     0x00389ef4   ER_RO
    $p     0x00389f2c   ER_RO
    $p     0x00389f48   ER_RO
    $p     0x00389f58   ER_RO
    $p     0x00389f68   ER_RO
    $p     0x00389f98   ER_RO
    $d     0x00389fb4   ER_RO
    $f     0x00389fb4   ER_RO
    $a     0x00389fd8   ER_RO
    $p     0x00389ff8   ER_RO
    $p     0x0038a02c   ER_RO
    $p     0x0038a10c   ER_RO
    $p     0x0038a130   ER_RO
    $p     0x0038a15c   ER_RO
    $d     0x0038a184   ER_RO
    $f     0x0038a1a0   ER_RO
    $f     0x0038a1c8   ER_RO
    $a     0x0038a1cc   ER_RO
    $p     0x0038a1f8   ER_RO
    $p     0x0038a224   ER_RO
    $p     0x0038a23c   ER_RO
    $p     0x0038a260   ER_RO
    $p     0x0038a274   ER_RO
    $p     0x0038a290   ER_RO
    $d     0x0038a2c8   ER_RO
    $a     0x0038a2fc   ER_RO
    $p     0x0038a324   ER_RO
    $p     0x0038a388   ER_RO
    $p     0x0038a450   ER_RO
    $d     0x0038a4d8   ER_RO
    $f     0x0038a4d8   ER_RO
    $a     0x0038a508   ER_RO
    $p     0x0038a524   ER_RO
    $p     0x0038a544   ER_RO
    $d     0x0038a558   ER_RO
    $a     0x0038a570   ER_RO
    $p     0x0038a768   ER_RO
    $d     0x0038a76c   ER_RO
    $a     0x0038a784   ER_RO
    $p     0x0038a848   ER_RO
    $d     0x0038a850   ER_RO
    $f     0x0038a858   ER_RO
    $a     0x0038a864   ER_RO
    $p     0x0038a894   ER_RO
    $d     0x0038a8d0   ER_RO
    $a     0x0038a8e8   ER_RO
    $p     0x0038a8fc   ER_RO
    $p     0x0038a910   ER_RO
    $p     0x0038a924   ER_RO
    $p     0x0038a940   ER_RO
    $p     0x0038a95c   ER_RO
    $p     0x0038a9b8   ER_RO
    $p     0x0038aa14   ER_RO
    $p     0x0038aa24   ER_RO
    $p     0x0038aa54   ER_RO
    $d     0x0038aa64   ER_RO
    $a     0x0038aa98   ER_RO
    $p     0x0038aaac   ER_RO
    $p     0x0038aac8   ER_RO
    $p     0x0038aae8   ER_RO
    $p     0x0038aaf8   ER_RO
    $p     0x0038ab60   ER_RO
    $p     0x0038abb4   ER_RO
    $p     0x0038ac60   ER_RO
    $d     0x0038aca8   ER_RO
    $a     0x0038acf8   ER_RO
    $p     0x0038ad14   ER_RO
    $p     0x0038ad28   ER_RO
    $p     0x0038ad40   ER_RO
    $p     0x0038ad64   ER_RO
    $p     0x0038ae1c   ER_RO
    $p     0x0038ae90   ER_RO
    $d     0x0038aec0   ER_RO
    $a     0x0038aefc   ER_RO
    $p     0x0038b018   ER_RO
    $d     0x0038b068   ER_RO
    $a     0x0038b090   ER_RO
    $p     0x0038b1d4   ER_RO
    $d     0x0038b1e4   ER_RO
    $a     0x0038b1f0   ER_RO
    $p     0x0038b228   ER_RO
    $p     0x0038b248   ER_RO
    $d     0x0038b24c   ER_RO
    $f     0x0038b24c   ER_RO
    $a     0x0038b260   ER_RO
    $p     0x0038b28c   ER_RO
    $d     0x0038b294   ER_RO
    $a     0x0038b298   ER_RO
    $p     0x0038b2ac   ER_RO
    $p     0x0038b2bc   ER_RO
    $p     0x0038b358   ER_RO
    $p     0x0038b36c   ER_RO
    $p     0x0038b384   ER_RO
    $p     0x0038b398   ER_RO
    $p     0x0038b3ac   ER_RO
    $p     0x0038b3bc   ER_RO
    $p     0x0038b3cc   ER_RO
    $p     0x0038b3dc   ER_RO
    $p     0x0038b400   ER_RO
    $d     0x0038b408   ER_RO
    $f     0x0038b420   ER_RO
    $a     0x0038b42c   ER_RO
    $p     0x0038b4d4   ER_RO
    $d     0x0038b4f4   ER_RO
    $a     0x0038b50c   ER_RO
    $p     0x0038b524   ER_RO
    $p     0x0038b558   ER_RO
    $d     0x0038b564   ER_RO
    $f     0x0038b56c   ER_RO
    $a     0x0038b578   ER_RO
    $p     0x0038b59c   ER_RO
    $d     0x0038b700   ER_RO
    $a     0x0038b73c   ER_RO
    $p     0x0038b754   ER_RO
    $d     0x0038b8e8   ER_RO
    $a     0x0038b920   ER_RO
    $p     0x0038b92c   ER_RO
    $p     0x0038b94c   ER_RO
    $p     0x0038b984   ER_RO
    $p     0x0038b9b4   ER_RO
    $p     0x0038b9e4   ER_RO
    $p     0x0038ba14   ER_RO
    $d     0x0038ba9c   ER_RO
    $a     0x0038bb44   ER_RO
    $p     0x0038bbcc   ER_RO
    $p     0x0038bc00   ER_RO
    $d     0x0038bc0c   ER_RO
    $a     0x0038bc44   ER_RO
    $d     0x0038bc94   ER_RO
    $a     0x0038bcbc   ER_RO
    $p     0x0038bcfc   ER_RO
    $p     0x0038bd2c   ER_RO
    $p     0x0038bd44   ER_RO
    $p     0x0038bd60   ER_RO
    $d     0x0038bebc   ER_RO
    $a     0x0038bfc0   ER_RO
    $d     0x0038c128   ER_RO
    $a     0x0038c254   ER_RO
    $p     0x0038c354   ER_RO
    $p     0x0038c380   ER_RO
    $p     0x0038c394   ER_RO
    $d     0x0038c39c   ER_RO
    $a     0x0038c454   ER_RO
    $p     0x0038c4c0   ER_RO
    $p     0x0038c4d0   ER_RO
    $d     0x0038c5a8   ER_RO
    $a     0x0038c5b0   ER_RO
    $p     0x0038c600   ER_RO
    $p     0x0038c614   ER_RO
    $d     0x0038c64c   ER_RO
    $a     0x0038c670   ER_RO
    $p     0x0038c7d4   ER_RO
    $d     0x0038c7e0   ER_RO
    $a     0x0038c7f8   ER_RO
    $p     0x0038c820   ER_RO
    $p     0x0038c864   ER_RO
    $d     0x0038c86c   ER_RO
    $f     0x0038c880   ER_RO
    $a     0x0038c890   ER_RO
    $p     0x0038c8d4   ER_RO
    $p     0x0038c8f4   ER_RO
    $p     0x0038c918   ER_RO
    $p     0x0038c938   ER_RO
    $d     0x0038c940   ER_RO
    $f     0x0038c95c   ER_RO
    $a     0x0038c964   ER_RO
    $p     0x0038c988   ER_RO
    $p     0x0038c9ac   ER_RO
    $p     0x0038ca04   ER_RO
    $p     0x0038ca24   ER_RO
    $d     0x0038ca3c   ER_RO
    $a     0x0038ca54   ER_RO
    $p     0x0038ca80   ER_RO
    $p     0x0038caa8   ER_RO
    $p     0x0038cab4   ER_RO
    $p     0x0038caec   ER_RO
    $p     0x0038cb18   ER_RO
    $p     0x0038cb40   ER_RO
    $p     0x0038cb80   ER_RO
    $p     0x0038cb94   ER_RO
    $p     0x0038cbac   ER_RO
    $p     0x0038cbbc   ER_RO
    $d     0x0038cbc8   ER_RO
    $a     0x0038cc9c   ER_RO
    $p     0x0038ccb8   ER_RO
    $p     0x0038ccfc   ER_RO
    $p     0x0038cd38   ER_RO
    $p     0x0038cd58   ER_RO
    $p     0x0038cdbc   ER_RO
    $d     0x0038cdc8   ER_RO
    $a     0x0038ce48   ER_RO
    $p     0x0038cea8   ER_RO
    $p     0x0038cebc   ER_RO
    $p     0x0038cf20   ER_RO
    $p     0x0038cf34   ER_RO
    $p     0x0038cf48   ER_RO
    $p     0x0038cf6c   ER_RO
    $d     0x0038cfb4   ER_RO
    $a     0x0038d058   ER_RO
    $p     0x0038d0b4   ER_RO
    $p     0x0038d0d4   ER_RO
    $d     0x0038d0dc   ER_RO
    $f     0x0038d11c   ER_RO
    $a     0x0038d124   ER_RO
    $p     0x0038d140   ER_RO
    $p     0x0038d158   ER_RO
    $p     0x0038d168   ER_RO
    $p     0x0038d180   ER_RO
    $p     0x0038d1ac   ER_RO
    $p     0x0038d228   ER_RO
    $p     0x0038d25c   ER_RO
    $p     0x0038d2a8   ER_RO
    $p     0x0038d2e0   ER_RO
    $p     0x0038d330   ER_RO
    $p     0x0038d350   ER_RO
    $p     0x0038d3ac   ER_RO
    $p     0x0038d438   ER_RO
    $p     0x0038d464   ER_RO
    $p     0x0038d488   ER_RO
    $d     0x0038d498   ER_RO
    $f     0x0038d4a8   ER_RO
    $f     0x0038d58c   ER_RO
    $a     0x0038d598   ER_RO
    $p     0x0038d5c0   ER_RO
    $p     0x0038d5cc   ER_RO
    $p     0x0038d600   ER_RO
    $p     0x0038d62c   ER_RO
    $p     0x0038d654   ER_RO
    $d     0x0038d65c   ER_RO
    $a     0x0038d6cc   ER_RO
    $p     0x0038d6e8   ER_RO
    $p     0x0038d740   ER_RO
    $p     0x0038d750   ER_RO
    $p     0x0038d764   ER_RO
    $p     0x0038d798   ER_RO
    $p     0x0038d7ac   ER_RO
    $p     0x0038d7c0   ER_RO
    $p     0x0038d7e8   ER_RO
    $p     0x0038d800   ER_RO
    $p     0x0038d838   ER_RO
    $d     0x0038d83c   ER_RO
    $a     0x0038d934   ER_RO
    $p     0x0038d98c   ER_RO
    $p     0x0038d9d0   ER_RO
    $p     0x0038d9f8   ER_RO
    $d     0x0038da08   ER_RO
    $f     0x0038da0c   ER_RO
    $a     0x0038da44   ER_RO
    $p     0x0038da58   ER_RO
    $p     0x0038da90   ER_RO
    $d     0x0038da94   ER_RO
    $a     0x0038daa8   ER_RO
    $p     0x0038dad4   ER_RO
    $p     0x0038db34   ER_RO
    $p     0x0038db68   ER_RO
    $p     0x0038db88   ER_RO
    $p     0x0038dbb0   ER_RO
    $p     0x0038dbcc   ER_RO
    $p     0x0038dbe8   ER_RO
    $d     0x0038dbf0   ER_RO
    $f     0x0038dc18   ER_RO
    $a     0x0038dc24   ER_RO
    $p     0x0038dc34   ER_RO
    $p     0x0038dc80   ER_RO
    $p     0x0038dcb4   ER_RO
    $p     0x0038dd00   ER_RO
    $p     0x0038dd40   ER_RO
    $p     0x0038dd60   ER_RO
    $p     0x0038dd80   ER_RO
    $p     0x0038dda0   ER_RO
    $d     0x0038dda8   ER_RO
    $f     0x0038ddf8   ER_RO
    $a     0x0038de00   ER_RO
    $p     0x0038de84   ER_RO
    $p     0x0038dea8   ER_RO
    $d     0x0038deac   ER_RO
    $a     0x0038dec8   ER_RO
    $p     0x0038df2c   ER_RO
    $p     0x0038df44   ER_RO
    $p     0x0038df7c   ER_RO
    $p     0x0038dfa8   ER_RO
    $d     0x0038dfc4   ER_RO
    $f     0x0038dfcc   ER_RO
    $a     0x0038dfd4   ER_RO
    $p     0x0038e06c   ER_RO
    $p     0x0038e104   ER_RO
    $p     0x0038e1d8   ER_RO
    $p     0x0038e1f8   ER_RO
    $p     0x0038e208   ER_RO
    $p     0x0038e24c   ER_RO
    $p     0x0038e274   ER_RO
    $d     0x0038e27c   ER_RO
    $f     0x0038e27c   ER_RO
    $a     0x0038e2a8   ER_RO
    $p     0x0038e2c4   ER_RO
    $p     0x0038e2d4   ER_RO
    $p     0x0038e324   ER_RO
    $p     0x0038e424   ER_RO
    $d     0x0038e42c   ER_RO
    $f     0x0038e43c   ER_RO
    $a     0x0038e440   ER_RO
    $p     0x0038e4cc   ER_RO
    $p     0x0038e4f4   ER_RO
    $p     0x0038e524   ER_RO
    $p     0x0038e544   ER_RO
    $p     0x0038e554   ER_RO
    $p     0x0038e57c   ER_RO
    $p     0x0038e5a8   ER_RO
    $d     0x0038e5b0   ER_RO
    $a     0x0038e5f0   ER_RO
    $p     0x0038e654   ER_RO
    $p     0x0038e670   ER_RO
    $d     0x0038e678   ER_RO
    $a     0x0038e680   ER_RO
    $p     0x0038e6a0   ER_RO
    $p     0x0038e6b8   ER_RO
    $p     0x0038e6cc   ER_RO
    $p     0x0038e6e4   ER_RO
    $p     0x0038e708   ER_RO
    $d     0x0038e710   ER_RO
    $f     0x0038e720   ER_RO
    $a     0x0038e72c   ER_RO
    $p     0x0038e9e8   ER_RO
    $p     0x0038ea18   ER_RO
    $d     0x0038ebac   ER_RO
    $a     0x0038ebe4   ER_RO
    $p     0x0038f1ec   ER_RO
    $p     0x0038f3ac   ER_RO
    $d     0x0038f484   ER_RO
    $f     0x0038f484   ER_RO
    $a     0x0038f4bc   ER_RO
    $p     0x0038f5a4   ER_RO
    $p     0x0038f618   ER_RO
    $p     0x0038f68c   ER_RO
    $p     0x0038f6e8   ER_RO
    $p     0x0038f734   ER_RO
    $p     0x0038f788   ER_RO
    $p     0x0038f7a4   ER_RO
    $p     0x0038f7c0   ER_RO
    $p     0x0038f834   ER_RO
    $p     0x0038f898   ER_RO
    $p     0x0038f8b4   ER_RO
    $p     0x0038f930   ER_RO
    $p     0x0038f944   ER_RO
    $d     0x0038f968   ER_RO
    $a     0x0038fa24   ER_RO
    $p     0x0038fa48   ER_RO
    $p     0x0038fa58   ER_RO
    $p     0x0038fa6c   ER_RO
    $d     0x0038fa78   ER_RO
    $a     0x0038fa94   ER_RO
    $p     0x0038faa8   ER_RO
    $d     0x0038fac0   ER_RO
    $a     0x0038fad4   ER_RO
    $p     0x0038fae8   ER_RO
    $d     0x0038fb00   ER_RO
    $a     0x0038fb14   ER_RO
    $p     0x0038fb28   ER_RO
    $d     0x0038fb40   ER_RO
    $a     0x0038fb50   ER_RO
    $p     0x0038fb70   ER_RO
    $d     0x0038fb88   ER_RO
    $a     0x0038fb98   ER_RO
    $p     0x0038fbe8   ER_RO
    $p     0x0038fbf8   ER_RO
    $d     0x0038fc10   ER_RO
    $a     0x0038fc40   ER_RO
    $p     0x0038fc54   ER_RO
    $d     0x0038fc6c   ER_RO
    $a     0x0038fc84   ER_RO
    $p     0x0038fcc0   ER_RO
    $p     0x0038fcf8   ER_RO
    $p     0x0038fd10   ER_RO
    $p     0x0038fe04   ER_RO
    $p     0x0038fe80   ER_RO
    $p     0x0038febc   ER_RO
    $p     0x0038fed0   ER_RO
    $p     0x0038feec   ER_RO
    $p     0x0038ff20   ER_RO
    $p     0x0038ff38   ER_RO
    $p     0x0038ff60   ER_RO
    $p     0x0038ffcc   ER_RO
    $p     0x0038ffe8   ER_RO
    $d     0x00390038   ER_RO
    $f     0x00390100   ER_RO
    $a     0x00390144   ER_RO
    $p     0x00390238   ER_RO
    $p     0x003902b0   ER_RO
    $d     0x003902c8   ER_RO
    $a     0x003902f8   ER_RO
    $p     0x00390308   ER_RO
    $p     0x00390320   ER_RO
    $p     0x0039032c   ER_RO
    $p     0x00390348   ER_RO
    $p     0x00390354   ER_RO
    $p     0x00390370   ER_RO
    $p     0x0039037c   ER_RO
    $p     0x00390398   ER_RO
    $p     0x003903a4   ER_RO
    $p     0x003903c0   ER_RO
    $p     0x003903cc   ER_RO
    $p     0x003903e8   ER_RO
    $p     0x003903f4   ER_RO
    $p     0x00390410   ER_RO
    $p     0x0039041c   ER_RO
    $p     0x00390438   ER_RO
    $p     0x00390444   ER_RO
    $p     0x00390460   ER_RO
    $p     0x0039046c   ER_RO
    $p     0x00390488   ER_RO
    $p     0x00390494   ER_RO
    $p     0x003904b0   ER_RO
    $p     0x003904bc   ER_RO
    $p     0x003904d8   ER_RO
    $p     0x003904e4   ER_RO
    $p     0x00390500   ER_RO
    $p     0x0039050c   ER_RO
    $p     0x00390528   ER_RO
    $p     0x00390534   ER_RO
    $p     0x00390550   ER_RO
    $p     0x0039055c   ER_RO
    $p     0x00390578   ER_RO
    $p     0x00390584   ER_RO
    $p     0x003905a0   ER_RO
    $p     0x003905ac   ER_RO
    $p     0x003905c8   ER_RO
    $p     0x003905d4   ER_RO
    $p     0x003905f0   ER_RO
    $p     0x003905fc   ER_RO
    $p     0x00390618   ER_RO
    $p     0x00390624   ER_RO
    $p     0x00390640   ER_RO
    $p     0x0039064c   ER_RO
    $p     0x00390668   ER_RO
    $p     0x00390674   ER_RO
    $d     0x00390690   ER_RO
    $a     0x00390880   ER_RO
    $p     0x00390884   ER_RO
    $p     0x00390890   ER_RO
    $p     0x003908ac   ER_RO
    $p     0x003908b8   ER_RO
    $p     0x003908d4   ER_RO
    $p     0x003908e0   ER_RO
    $p     0x003908fc   ER_RO
    $p     0x00390908   ER_RO
    $p     0x00390924   ER_RO
    $p     0x00390930   ER_RO
    $p     0x0039094c   ER_RO
    $p     0x00390958   ER_RO
    $p     0x00390974   ER_RO
    $p     0x00390980   ER_RO
    $p     0x0039099c   ER_RO
    $p     0x003909a8   ER_RO
    $p     0x003909c4   ER_RO
    $p     0x003909d0   ER_RO
    $p     0x003909ec   ER_RO
    $p     0x003909f8   ER_RO
    $p     0x00390a14   ER_RO
    $p     0x00390a20   ER_RO
    $p     0x00390a3c   ER_RO
    $p     0x00390a48   ER_RO
    $p     0x00390a64   ER_RO
    $p     0x00390a70   ER_RO
    $p     0x00390a8c   ER_RO
    $p     0x00390a98   ER_RO
    $p     0x00390ab4   ER_RO
    $p     0x00390ac0   ER_RO
    $p     0x00390adc   ER_RO
    $p     0x00390ae8   ER_RO
    $p     0x00390b04   ER_RO
    $p     0x00390b10   ER_RO
    $p     0x00390b2c   ER_RO
    $p     0x00390b38   ER_RO
    $p     0x00390b54   ER_RO
    $p     0x00390b60   ER_RO
    $p     0x00390b7c   ER_RO
    $p     0x00390b88   ER_RO
    $p     0x00390ba4   ER_RO
    $p     0x00390bb0   ER_RO
    $p     0x00390bcc   ER_RO
    $p     0x00390bd8   ER_RO
    $p     0x00390bf4   ER_RO
    $p     0x00390c00   ER_RO
    $p     0x00390c1c   ER_RO
    $d     0x00390c28   ER_RO
    $a     0x00390ea4   ER_RO
    $p     0x00390ea8   ER_RO
    $p     0x00390ec4   ER_RO
    $p     0x00390ed0   ER_RO
    $p     0x00390eec   ER_RO
    $p     0x00390ef8   ER_RO
    $p     0x00390f14   ER_RO
    $p     0x00390f20   ER_RO
    $p     0x00390f3c   ER_RO
    $p     0x00390f48   ER_RO
    $p     0x00390f64   ER_RO
    $p     0x00390f70   ER_RO
    $p     0x00390f8c   ER_RO
    $p     0x00390f98   ER_RO
    $p     0x00390fb4   ER_RO
    $p     0x00390fc0   ER_RO
    $p     0x00390fdc   ER_RO
    $p     0x00390fe8   ER_RO
    $p     0x00391004   ER_RO
    $p     0x00391010   ER_RO
    $p     0x0039102c   ER_RO
    $p     0x00391038   ER_RO
    $p     0x00391054   ER_RO
    $p     0x00391060   ER_RO
    $p     0x0039107c   ER_RO
    $p     0x00391088   ER_RO
    $p     0x003910a4   ER_RO
    $p     0x003910b0   ER_RO
    $p     0x003910cc   ER_RO
    $p     0x003910d8   ER_RO
    $p     0x003910f4   ER_RO
    $p     0x00391100   ER_RO
    $p     0x0039111c   ER_RO
    $p     0x00391128   ER_RO
    $p     0x00391144   ER_RO
    $p     0x00391150   ER_RO
    $p     0x0039116c   ER_RO
    $p     0x00391178   ER_RO
    $p     0x00391194   ER_RO
    $p     0x003911a0   ER_RO
    $p     0x003911bc   ER_RO
    $p     0x003911c8   ER_RO
    $p     0x003911e4   ER_RO
    $p     0x003911f0   ER_RO
    $p     0x0039120c   ER_RO
    $p     0x00391218   ER_RO
    $p     0x00391234   ER_RO
    $p     0x00391240   ER_RO
    $p     0x0039125c   ER_RO
    $d     0x00391268   ER_RO
    $a     0x0039149c   ER_RO
    $p     0x003914a0   ER_RO
    $p     0x003914bc   ER_RO
    $p     0x003914c8   ER_RO
    $p     0x003914e4   ER_RO
    $p     0x003914f0   ER_RO
    $p     0x0039150c   ER_RO
    $p     0x00391518   ER_RO
    $p     0x00391534   ER_RO
    $p     0x00391540   ER_RO
    $p     0x0039155c   ER_RO
    $p     0x00391568   ER_RO
    $p     0x00391584   ER_RO
    $p     0x00391590   ER_RO
    $p     0x003915ac   ER_RO
    $p     0x003915b8   ER_RO
    $p     0x003915d4   ER_RO
    $p     0x003915e0   ER_RO
    $p     0x003915fc   ER_RO
    $p     0x00391608   ER_RO
    $p     0x00391624   ER_RO
    $p     0x00391630   ER_RO
    $p     0x0039164c   ER_RO
    $p     0x00391658   ER_RO
    $p     0x00391674   ER_RO
    $p     0x00391680   ER_RO
    $p     0x0039169c   ER_RO
    $p     0x003916a8   ER_RO
    $p     0x003916c4   ER_RO
    $p     0x003916d0   ER_RO
    $p     0x003916ec   ER_RO
    $p     0x003916f8   ER_RO
    $p     0x00391714   ER_RO
    $p     0x00391720   ER_RO
    $p     0x0039173c   ER_RO
    $p     0x00391748   ER_RO
    $p     0x00391764   ER_RO
    $p     0x00391770   ER_RO
    $p     0x0039178c   ER_RO
    $p     0x00391798   ER_RO
    $p     0x003917b4   ER_RO
    $p     0x003917c0   ER_RO
    $p     0x003917dc   ER_RO
    $p     0x003917e8   ER_RO
    $p     0x00391804   ER_RO
    $p     0x00391810   ER_RO
    $p     0x0039182c   ER_RO
    $p     0x00391838   ER_RO
    $p     0x00391854   ER_RO
    $d     0x00391860   ER_RO
    $a     0x00391ab0   ER_RO
    $p     0x00391ab4   ER_RO
    $p     0x00391ad0   ER_RO
    $p     0x00391adc   ER_RO
    $p     0x00391af8   ER_RO
    $p     0x00391b04   ER_RO
    $p     0x00391b20   ER_RO
    $p     0x00391b2c   ER_RO
    $p     0x00391b48   ER_RO
    $p     0x00391b54   ER_RO
    $p     0x00391b70   ER_RO
    $p     0x00391b7c   ER_RO
    $p     0x00391b98   ER_RO
    $p     0x00391ba4   ER_RO
    $p     0x00391bc0   ER_RO
    $p     0x00391bcc   ER_RO
    $p     0x00391be8   ER_RO
    $p     0x00391bf4   ER_RO
    $p     0x00391c10   ER_RO
    $p     0x00391c1c   ER_RO
    $p     0x00391c38   ER_RO
    $p     0x00391c44   ER_RO
    $p     0x00391c60   ER_RO
    $p     0x00391c6c   ER_RO
    $p     0x00391c88   ER_RO
    $p     0x00391c94   ER_RO
    $p     0x00391cb0   ER_RO
    $p     0x00391cbc   ER_RO
    $p     0x00391cd8   ER_RO
    $p     0x00391ce4   ER_RO
    $p     0x00391d00   ER_RO
    $p     0x00391d0c   ER_RO
    $p     0x00391d28   ER_RO
    $p     0x00391d34   ER_RO
    $p     0x00391d50   ER_RO
    $p     0x00391d5c   ER_RO
    $p     0x00391d78   ER_RO
    $p     0x00391d84   ER_RO
    $p     0x00391da0   ER_RO
    $p     0x00391dac   ER_RO
    $p     0x00391dc8   ER_RO
    $p     0x00391dd4   ER_RO
    $p     0x00391df0   ER_RO
    $p     0x00391dfc   ER_RO
    $p     0x00391e18   ER_RO
    $p     0x00391e24   ER_RO
    $p     0x00391e40   ER_RO
    $p     0x00391e4c   ER_RO
    $p     0x00391e68   ER_RO
    $d     0x00391e74   ER_RO
    $a     0x00392070   ER_RO
    $p     0x00392074   ER_RO
    $p     0x00392090   ER_RO
    $p     0x0039209c   ER_RO
    $p     0x003920b8   ER_RO
    $p     0x003920c4   ER_RO
    $p     0x003920e0   ER_RO
    $p     0x003920ec   ER_RO
    $p     0x00392108   ER_RO
    $p     0x00392114   ER_RO
    $p     0x00392130   ER_RO
    $p     0x0039213c   ER_RO
    $p     0x00392158   ER_RO
    $p     0x00392164   ER_RO
    $p     0x00392180   ER_RO
    $p     0x0039218c   ER_RO
    $p     0x003921a8   ER_RO
    $p     0x003921b4   ER_RO
    $p     0x003921d0   ER_RO
    $p     0x003921dc   ER_RO
    $p     0x003921f8   ER_RO
    $p     0x00392204   ER_RO
    $p     0x00392220   ER_RO
    $p     0x0039222c   ER_RO
    $p     0x00392248   ER_RO
    $p     0x00392254   ER_RO
    $p     0x00392270   ER_RO
    $p     0x0039227c   ER_RO
    $p     0x00392298   ER_RO
    $p     0x003922a4   ER_RO
    $p     0x003922c0   ER_RO
    $p     0x003922cc   ER_RO
    $p     0x003922e8   ER_RO
    $p     0x003922f4   ER_RO
    $p     0x00392310   ER_RO
    $p     0x0039231c   ER_RO
    $p     0x00392338   ER_RO
    $p     0x00392344   ER_RO
    $p     0x00392364   ER_RO
    $d     0x0039236c   ER_RO
    $a     0x0039252c   ER_RO
    $d     0x00392550   ER_RO
    $t     0x00392554   ER_RO
    $b     0x00392576   ER_RO
    $b     0x00392580   ER_RO
    $d     0x00392590   ER_RO
    $f     0x00392590   ER_RO
    $f     0x00392594   ER_RO
    $t     0x00392598   ER_RO
    $b     0x0039259c   ER_RO
    $b     0x003925aa   ER_RO
    $d     0x003925ba   ER_RO
    $t     0x003925bc   ER_RO
    $b     0x003925c8   ER_RO
    $b     0x0039266a   ER_RO
    $b     0x00392672   ER_RO
    $b     0x003926b4   ER_RO
    $b     0x003926c4   ER_RO
    $b     0x003926da   ER_RO
    $b     0x003926ee   ER_RO
    $b     0x00392704   ER_RO
    $b     0x0039271a   ER_RO
    $b     0x0039274c   ER_RO
    $d     0x00392752   ER_RO
    $t     0x00392770   ER_RO
    $d     0x00392772   ER_RO
    $a     0x00392774   ER_RO
    $t     0x003927b8   ER_RO
    $d     0x003927ba   ER_RO
    $a     0x003927bc   ER_RO
    $t     0x00392814   ER_RO
    $d     0x00392816   ER_RO
    $a     0x00392818   ER_RO
    $t     0x003928cc   ER_RO
    $d     0x003928ce   ER_RO
    $a     0x003928d0   ER_RO
    $t     0x0039293c   ER_RO
    $d     0x0039293e   ER_RO
    $a     0x00392940   ER_RO
    $t     0x00392954   ER_RO
    $d     0x00392956   ER_RO
    $a     0x00392958   ER_RO
    $t     0x00392a18   ER_RO
    $d     0x00392a1a   ER_RO
    $a     0x00392a1c   ER_RO
    $t     0x00392a48   ER_RO
    $b     0x00392a6a   ER_RO
    $b     0x00392a74   ER_RO
    $d     0x00392a84   ER_RO
    $f     0x00392a84   ER_RO
    $f     0x00392a88   ER_RO
    $t     0x00392a8c   ER_RO
    $b     0x00392ab6   ER_RO
    $d     0x00392ac2   ER_RO
    $f     0x00392ac4   ER_RO
    $f     0x00392ac8   ER_RO
    $d     0x00392acc   ER_RO
    $t     0x00392ad0   ER_RO
    $d     0x00392ad2   ER_RO
    $a     0x00392ad4   ER_RO
    $t     0x00392b70   ER_RO
    $d     0x00392bb6   ER_RO
    $t     0x00392bbc   ER_RO
    $d     0x00392c08   ER_RO
    $t     0x00392c0c   ER_RO
    $d     0x00392c5c   ER_RO
    $t     0x00392c60   ER_RO
    $d     0x00392c8a   ER_RO
    $a     0x00392c8c   ER_RO
    $t     0x00392cac   ER_RO
    $d     0x00392cae   ER_RO
    $a     0x00392cb0   ER_RO
    $d     0x00393090   ER_RO
    $a     0x003930e0   ER_RO
    $d     0x003931ac   ER_RO
    $a     0x003931c0   ER_RO
    $d     0x00393614   ER_RO
    $a     0x00393654   ER_RO
    $d     0x00393a84   ER_RO
    $a     0x00393ad4   ER_RO
    $d     0x00393ee4   ER_RO
    $a     0x00393f4c   ER_RO
    $d     0x00394090   ER_RO
    $a     0x0039409c   ER_RO
    $d     0x00394174   ER_RO
    $a     0x00394188   ER_RO
    $d     0x003941ec   ER_RO
    $t     0x003941fc   ER_RO
    $b     0x0039421a   ER_RO
    $b     0x003943fa   ER_RO
    $b     0x0039440c   ER_RO
    $b     0x0039442c   ER_RO
    $b     0x003944ca   ER_RO
    $b     0x003944fe   ER_RO
    $b     0x0039451e   ER_RO
    $b     0x0039454c   ER_RO
    $b     0x003946d2   ER_RO
    $b     0x003946dc   ER_RO
    $b     0x00394760   ER_RO
    $b     0x00394778   ER_RO
    $b     0x003947dc   ER_RO
    $b     0x0039482e   ER_RO
    $b     0x00394854   ER_RO
    $b     0x00394874   ER_RO
    $b     0x00394882   ER_RO
    $b     0x003948c0   ER_RO
    $b     0x003948d4   ER_RO
    $b     0x00394918   ER_RO
    $b     0x00394922   ER_RO
    $b     0x00394946   ER_RO
    $d     0x0039494e   ER_RO
    $t     0x0039499c   ER_RO
    $b     0x003949a2   ER_RO
    $b     0x003949c6   ER_RO
    $b     0x003949f6   ER_RO
    $b     0x00394a12   ER_RO
    $b     0x00394a4a   ER_RO
    $b     0x00394a8c   ER_RO
    $b     0x00394aa2   ER_RO
    $b     0x00394ab4   ER_RO
    $b     0x00394ad6   ER_RO
    $b     0x00394af4   ER_RO
    $b     0x00394b14   ER_RO
    $d     0x00394b26   ER_RO
    $t     0x00394b28   ER_RO
    $b     0x00394b2a   ER_RO
    $b     0x00394b3a   ER_RO
    $d     0x00394b46   ER_RO
    $t     0x00394b48   ER_RO
    $b     0x00394b62   ER_RO
    $b     0x00394b92   ER_RO
    $b     0x00394bd8   ER_RO
    $b     0x00394bfa   ER_RO
    $b     0x00394c2a   ER_RO
    $b     0x00394c5e   ER_RO
    $b     0x00394c64   ER_RO
    $b     0x00394c76   ER_RO
    $b     0x00394c84   ER_RO
    $b     0x00394c92   ER_RO
    $b     0x00394cb0   ER_RO
    $b     0x00394cee   ER_RO
    $b     0x00394d30   ER_RO
    $b     0x00394d54   ER_RO
    $b     0x00394d88   ER_RO
    $b     0x00394dc8   ER_RO
    $b     0x00394dd6   ER_RO
    $b     0x00394de2   ER_RO
    $d     0x00394e46   ER_RO
    $t     0x00394e50   ER_RO
    $b     0x00394e62   ER_RO
    $b     0x00394e9c   ER_RO
    $b     0x00394eb4   ER_RO
    $b     0x00394ec2   ER_RO
    $b     0x00394ecc   ER_RO
    $b     0x00394ee2   ER_RO
    $b     0x0039500e   ER_RO
    $b     0x00395024   ER_RO
    $b     0x0039506c   ER_RO
    $b     0x003950ba   ER_RO
    $b     0x003950d0   ER_RO
    $b     0x003950e4   ER_RO
    $b     0x00395132   ER_RO
    $b     0x00395146   ER_RO
    $b     0x0039516a   ER_RO
    $b     0x003951ae   ER_RO
    $b     0x003951cc   ER_RO
    $b     0x003951e6   ER_RO
    $b     0x003951fa   ER_RO
    $b     0x00395292   ER_RO
    $b     0x003952bc   ER_RO
    $b     0x003952e8   ER_RO
    $d     0x003952f6   ER_RO
    $t     0x00395304   ER_RO
    $d     0x00395332   ER_RO
    $t     0x00395334   ER_RO
    $d     0x00395346   ER_RO
    $t     0x00395348   ER_RO
    $b     0x00395356   ER_RO
    $d     0x0039536c   ER_RO
    $t     0x00395374   ER_RO
    $b     0x00395382   ER_RO
    $d     0x00395398   ER_RO
    $t     0x003953a0   ER_RO
    $b     0x003953ae   ER_RO
    $d     0x003953c4   ER_RO
    $t     0x003953cc   ER_RO
    $b     0x003953da   ER_RO
    $d     0x003953f0   ER_RO
    $t     0x003953f8   ER_RO
    $b     0x00395406   ER_RO
    $d     0x0039541c   ER_RO
    $t     0x00395424   ER_RO
    $d     0x00395426   ER_RO
    $a     0x00395428   ER_RO
    $d     0x00395430   ER_RO
    $t     0x00395434   ER_RO
    $d     0x00395436   ER_RO
    $a     0x00395438   ER_RO
    $t     0x00395444   ER_RO
    $d     0x00395446   ER_RO
    $a     0x00395448   ER_RO
    $t     0x00395458   ER_RO
    $d     0x0039545a   ER_RO
    $a     0x0039545c   ER_RO
    $t     0x00395470   ER_RO
    $b     0x003954c4   ER_RO
    $b     0x003954f0   ER_RO
    $b     0x00395508   ER_RO
    $d     0x00395530   ER_RO
    $a     0x00395534   ER_RO
    $d     0x003956ec   ER_RO
    $a     0x0039570c   ER_RO
    $d     0x00395c38   ER_RO
    $a     0x00395ca4   ER_RO
    $d     0x00395d2c   ER_RO
    $a     0x00395d4c   ER_RO
    $d     0x00395e48   ER_RO
    $a     0x00395e68   ER_RO
    $d     0x00395fd0   ER_RO
    $t     0x00395fe4   ER_RO
    $d     0x00396006   ER_RO
    $t     0x00396008   ER_RO
    $b     0x00396016   ER_RO
    $b     0x00396020   ER_RO
    $b     0x003960d6   ER_RO
    $b     0x003960de   ER_RO
    $b     0x00396100   ER_RO
    $b     0x00396118   ER_RO
    $b     0x00396142   ER_RO
    $b     0x00396150   ER_RO
    $b     0x00396168   ER_RO
    $b     0x003961b0   ER_RO
    $b     0x003961c0   ER_RO
    $b     0x003961ce   ER_RO
    $b     0x003961de   ER_RO
    $b     0x003961ec   ER_RO
    $b     0x00396234   ER_RO
    $b     0x00396246   ER_RO
    $b     0x003962ba   ER_RO
    $b     0x003963ee   ER_RO
    $d     0x0039647a   ER_RO
    $t     0x003964b0   ER_RO
    $b     0x003964e0   ER_RO
    $b     0x003964fc   ER_RO
    $b     0x0039652e   ER_RO
    $b     0x0039655e   ER_RO
    $b     0x00396576   ER_RO
    $b     0x00396586   ER_RO
    $b     0x003965ee   ER_RO
    $b     0x0039661e   ER_RO
    $b     0x00396640   ER_RO
    $d     0x0039666a   ER_RO
    $a     0x0039666c   ER_RO
    $t     0x00396678   ER_RO
    $d     0x0039667a   ER_RO
    $a     0x0039667c   ER_RO
    $t     0x00396688   ER_RO
    $d     0x0039668a   ER_RO
    $a     0x0039668c   ER_RO
    $t     0x00396698   ER_RO
    $d     0x0039669a   ER_RO
    $a     0x0039669c   ER_RO
    $t     0x003966a4   ER_RO
    $d     0x003966a6   ER_RO
    $a     0x003966a8   ER_RO
    $t     0x003966b4   ER_RO
    $d     0x003966b6   ER_RO
    $a     0x003966b8   ER_RO
    $t     0x00396758   ER_RO
    $d     0x0039675a   ER_RO
    $a     0x0039675c   ER_RO
    $t     0x00396784   ER_RO
    $d     0x00396786   ER_RO
    $a     0x00396788   ER_RO
    $d     0x0039679c   ER_RO
    $f     0x0039679c   ER_RO
    $t     0x003967a0   ER_RO
    $d     0x003967a2   ER_RO
    $a     0x003967a4   ER_RO
    $t     0x003967c0   ER_RO
    $d     0x003967c2   ER_RO
    $a     0x003967c4   ER_RO
    $t     0x00396898   ER_RO
    $b     0x003968a6   ER_RO
    $b     0x003968b4   ER_RO
    $b     0x003968ca   ER_RO
    $d     0x003968d2   ER_RO
    $t     0x003968dc   ER_RO
    $b     0x003968f0   ER_RO
    $b     0x0039690e   ER_RO
    $d     0x0039691e   ER_RO
    $t     0x00396920   ER_RO
    $b     0x0039694a   ER_RO
    $b     0x0039697e   ER_RO
    $b     0x003969c0   ER_RO
    $b     0x003969de   ER_RO
    $b     0x003969f4   ER_RO
    $d     0x003969fe   ER_RO
    $t     0x00396a10   ER_RO
    $d     0x00396a12   ER_RO
    $a     0x00396a14   ER_RO
    $t     0x00396a20   ER_RO
    $d     0x00396a22   ER_RO
    $a     0x00396a24   ER_RO
    $t     0x00396a40   ER_RO
    $d     0x00396a42   ER_RO
    $a     0x00396a44   ER_RO
    $t     0x00396a84   ER_RO
    $d     0x00396a8a   ER_RO
    $t     0x00396a8c   ER_RO
    $d     0x00396a8e   ER_RO
    $a     0x00396a90   ER_RO
    $d     0x00396aa0   ER_RO
    $f     0x00396aa0   ER_RO
    $a     0x00396aa8   ER_RO
    $d     0x00396aec   ER_RO
    $a     0x00396af0   ER_RO
    $d     0x00396b40   ER_RO
    $t     0x00396b48   ER_RO
    $b     0x00396ba4   ER_RO
    $b     0x00396bb2   ER_RO
    $b     0x00396bc6   ER_RO
    $b     0x00396bd2   ER_RO
    $d     0x00396bde   ER_RO
    $t     0x00396c60   ER_RO
    $d     0x00396c62   ER_RO
    $a     0x00396c64   ER_RO
    $t     0x00396c68   ER_RO
    $d     0x00396c7a   ER_RO
    $t     0x00396c7c   ER_RO
    $d     0x00396c7e   ER_RO
    $a     0x00396c80   ER_RO
    $t     0x00396cb8   ER_RO
    $d     0x00396cba   ER_RO
    $a     0x00396cbc   ER_RO
    $t     0x00396d24   ER_RO
    $d     0x00396d26   ER_RO
    $a     0x00396d28   ER_RO
    $t     0x00396d7c   ER_RO
    $d     0x00396d7e   ER_RO
    $a     0x00396d80   ER_RO
    $t     0x00396db4   ER_RO
    $d     0x00396db6   ER_RO
    $a     0x00396db8   ER_RO
    $t     0x00396dec   ER_RO
    $d     0x00396dee   ER_RO
    $a     0x00396df0   ER_RO
    $t     0x00396e24   ER_RO
    $d     0x00396e26   ER_RO
    $a     0x00396e28   ER_RO
    $t     0x00396e5c   ER_RO
    $d     0x00396e5e   ER_RO
    $a     0x00396e60   ER_RO
    $t     0x00396f3c   ER_RO
    $d     0x00396f3e   ER_RO
    $a     0x00396f40   ER_RO
    $t     0x00396fa0   ER_RO
    $d     0x00396fa2   ER_RO
    $a     0x00396fa4   ER_RO
    $t     0x0039720c   ER_RO
    $d     0x0039720e   ER_RO
    $a     0x00397210   ER_RO
    $d     0x003974dc   ER_RO
    $a     0x00397560   ER_RO
    $d     0x0039756c   ER_RO
    $f     0x0039756c   ER_RO
    $a     0x00397570   ER_RO
    $d     0x0039757c   ER_RO
    $f     0x0039757c   ER_RO
    $a     0x00397580   ER_RO
    $d     0x0039758c   ER_RO
    $f     0x0039758c   ER_RO
    $a     0x00397590   ER_RO
    $t     0x003975b0   ER_RO
    $d     0x003975b2   ER_RO
    $a     0x003975b4   ER_RO
    $t     0x003977a0   ER_RO
    $d     0x003977a2   ER_RO
    $a     0x003977a4   ER_RO
    $t     0x003977e8   ER_RO
    $d     0x003977ea   ER_RO
    $a     0x003977ec   ER_RO
    $d     0x00397a74   ER_RO
    $t     0x00397a84   ER_RO
    $d     0x00397a86   ER_RO
    $a     0x00397a88   ER_RO
    $t     0x00397ac8   ER_RO
    $d     0x00397aca   ER_RO
    $a     0x00397acc   ER_RO
    $t     0x00397ae4   ER_RO
    $d     0x00397ae6   ER_RO
    $a     0x00397ae8   ER_RO
    $t     0x00397b50   ER_RO
    $d     0x00397b52   ER_RO
    $a     0x00397b54   ER_RO
    $t     0x00397ba0   ER_RO
    $d     0x00397ba2   ER_RO
    $a     0x00397ba4   ER_RO
    $t     0x00397bc4   ER_RO
    $d     0x00397bc6   ER_RO
    $a     0x00397bc8   ER_RO
    $t     0x00397e78   ER_RO
    $d     0x00397e7a   ER_RO
    $a     0x00397e7c   ER_RO
    $d     0x003980dc   ER_RO
    $t     0x0039816c   ER_RO
    $d     0x0039816e   ER_RO
    $a     0x00398170   ER_RO
    $d     0x003981ec   ER_RO
    $t     0x003981f0   ER_RO
    $d     0x003981f2   ER_RO
    $a     0x003981f4   ER_RO
    $d     0x00398294   ER_RO
    $t     0x00398298   ER_RO
    $d     0x0039829a   ER_RO
    $a     0x0039829c   ER_RO
    $d     0x003982d8   ER_RO
    $a     0x003982f8   ER_RO
    $d     0x0039833c   ER_RO
    $t     0x00398340   ER_RO
    $d     0x00398342   ER_RO
    $a     0x00398344   ER_RO
    $t     0x00398350   ER_RO
    $d     0x00398352   ER_RO
    $a     0x00398354   ER_RO
    $t     0x00398384   ER_RO
    $d     0x00398386   ER_RO
    $a     0x00398388   ER_RO
    $d     0x00398404   ER_RO
    $t     0x00398408   ER_RO
    $d     0x0039840a   ER_RO
    $a     0x0039840c   ER_RO
    $d     0x00398488   ER_RO
    $t     0x0039848c   ER_RO
    $d     0x0039848e   ER_RO
    $a     0x00398490   ER_RO
    $d     0x00398740   ER_RO
    $t     0x0039874c   ER_RO
    $d     0x0039874e   ER_RO
    $a     0x00398750   ER_RO
    $d     0x00398a3c   ER_RO
    $t     0x00398a44   ER_RO
    $d     0x00398a46   ER_RO
    $a     0x00398a48   ER_RO
    $d     0x00398c38   ER_RO
    $t     0x00398c3c   ER_RO
    $d     0x00398c3e   ER_RO
    $a     0x00398c40   ER_RO
    $t     0x00398da4   ER_RO
    $d     0x00398da6   ER_RO
    $a     0x00398da8   ER_RO
    $t     0x00398e74   ER_RO
    $d     0x00398e76   ER_RO
    $a     0x00398e78   ER_RO
    $d     0x00398fb8   ER_RO
    $t     0x00398fdc   ER_RO
    $d     0x00398fde   ER_RO
    $a     0x00398fe0   ER_RO
    $d     0x00399044   ER_RO
    $t     0x00399048   ER_RO
    $d     0x0039904a   ER_RO
    $a     0x0039904c   ER_RO
    $t     0x00399070   ER_RO
    $d     0x00399072   ER_RO
    $a     0x00399074   ER_RO
    $t     0x0039908c   ER_RO
    $d     0x0039908e   ER_RO
    $a     0x00399090   ER_RO
    $d     0x003990f4   ER_RO
    $t     0x00399108   ER_RO
    $d     0x0039910a   ER_RO
    $a     0x0039910c   ER_RO
    $d     0x00399164   ER_RO
    $t     0x00399168   ER_RO
    $d     0x0039916a   ER_RO
    $a     0x0039916c   ER_RO
    $d     0x003991d0   ER_RO
    $t     0x003991d4   ER_RO
    $d     0x003991d6   ER_RO
    $a     0x003991d8   ER_RO
    $t     0x00399300   ER_RO
    $d     0x00399302   ER_RO
    $a     0x00399304   ER_RO
    $t     0x00399354   ER_RO
    $d     0x00399356   ER_RO
    $a     0x00399358   ER_RO
    $t     0x00399440   ER_RO
    $d     0x00399442   ER_RO
    $a     0x00399444   ER_RO
    $t     0x003994c8   ER_RO
    $d     0x003994ca   ER_RO
    $a     0x003994cc   ER_RO
    $d     0x00399504   ER_RO
    $t     0x00399508   ER_RO
    $d     0x0039950a   ER_RO
    $a     0x0039950c   ER_RO
    $t     0x00399510   ER_RO
    $d     0x00399512   ER_RO
    $a     0x00399514   ER_RO
    $d     0x003995a4   ER_RO
    $t     0x003995ac   ER_RO
    $d     0x003995ae   ER_RO
    $a     0x003995b0   ER_RO
    $t     0x003995b4   ER_RO
    $d     0x003995b6   ER_RO
    $a     0x003995b8   ER_RO
    $t     0x003995dc   ER_RO
    $d     0x003995de   ER_RO
    $a     0x003995e0   ER_RO
    $d     0x00399660   ER_RO
    $d     0x00399dbc   ER_RW
    $d     0x00399dd8   ER_ZI

    Local Symbols

    Symbol Name                              Value     Ov Type        Size  Object(Section)

    D:\software\QQfile_recv\T808_Protocol\dynamic_app\dynamic\dynamic.s 0x00000000   Number         0  dynamic.o ABSOLUTE
    <Anonymous Symbol>                       0x00000000   Data         144  dynamic.o(.debug_info)
    <Anonymous Symbol>                       0x00000000   Data          16  dynamic.o(.debug_abbrev)
    <Anonymous Symbol>                       0x00000000   Data         124  dynamic.o(.debug_line)
    DYNAMIC_ENGINE_AS                        0x0038701c   ARM Code      56  dynamic.o(DYNAMIC_ENGINE_AS)
    dynamic_zi_init                          0x00387038   ARM Code       0  dynamic.o(DYNAMIC_ENGINE_AS)
    D:\software\QQfile_recv\T808_Protocol\dynamic_app\dynamic\dynamic_file.c 0x00000000   Number         0  dynamic_file.o ABSOLUTE
    .text                                    0x00387054   ARM Code       0  dynamic_file.o(.text)
    C$debug_frame307                         0x00000000   Data           0  dynamic_file.o(.debug_frame)
    C$debug_loc306                           0x00000000   Data           0  dynamic_file.o(.debug_loc)
    C$debug_macinfo29                        0x00000000   Data           0  dynamic_file.o(.debug_macinfo)
    C$debug_pubnames298                      0x00000000   Data           0  dynamic_file.o(.debug_pubnames)
    C$debug_abbrev0                          0x00000010   Data           0  dynamic_file.o(.debug_abbrev)
    C$debug_pubnames310                      0x00000028   Data           0  dynamic_file.o(.debug_pubnames)
    C$debug_pubnames316                      0x00000050   Data           0  dynamic_file.o(.debug_pubnames)
    C$debug_line302                          0x0000007c   Data           0  dynamic_file.o(.debug_line)
    C$debug_pubnames304                      0x0000007c   Data           0  dynamic_file.o(.debug_pubnames)
    C$debug_info39                           0x00000090   Data           0  dynamic_file.o(.debug_info)
    C$debug_pubnames28                       0x000000d4   Data           0  dynamic_file.o(.debug_pubnames)
    C$debug_line26                           0x00000154   Data           0  dynamic_file.o(.debug_line)
    C$debug_macinfo41                        0x0000015c   Data           0  dynamic_file.o(.debug_macinfo)
    C$debug_line38                           0x000001a4   Data           0  dynamic_file.o(.debug_line)
    C$debug_pubnames40                       0x000001b4   Data           0  dynamic_file.o(.debug_pubnames)
    C$debug_line68                           0x00000210   Data           0  dynamic_file.o(.debug_line)
    C$debug_line80                           0x00000290   Data           0  dynamic_file.o(.debug_line)
    C$debug_line116                          0x00000310   Data           0  dynamic_file.o(.debug_line)
    C$debug_line176                          0x0000038c   Data           0  dynamic_file.o(.debug_line)
    C$debug_line200                          0x0000043c   Data           0  dynamic_file.o(.debug_line)
    C$debug_line212                          0x000004ec   Data           0  dynamic_file.o(.debug_line)
    C$debug_line224                          0x0000059c   Data           0  dynamic_file.o(.debug_line)
    C$debug_macinfo71                        0x0000094c   Data           0  dynamic_file.o(.debug_macinfo)
    C$debug_macinfo83                        0x00000984   Data           0  dynamic_file.o(.debug_macinfo)
    C$debug_macinfo119                       0x00000a1c   Data           0  dynamic_file.o(.debug_macinfo)
    C$debug_macinfo179                       0x00000a64   Data           0  dynamic_file.o(.debug_macinfo)
    C$debug_macinfo203                       0x00000d04   Data           0  dynamic_file.o(.debug_macinfo)
    C$debug_macinfo215                       0x00000d1c   Data           0  dynamic_file.o(.debug_macinfo)
    C$debug_macinfo227                       0x00000d84   Data           0  dynamic_file.o(.debug_macinfo)
    C$debug_pubnames70                       0x00004a64   Data           0  dynamic_file.o(.debug_pubnames)
    C$debug_pubnames82                       0x00004bbc   Data           0  dynamic_file.o(.debug_pubnames)
    C$debug_pubnames118                      0x00004c74   Data           0  dynamic_file.o(.debug_pubnames)
    C$debug_pubnames178                      0x00004cd4   Data           0  dynamic_file.o(.debug_pubnames)
    C$debug_pubnames202                      0x00004e44   Data           0  dynamic_file.o(.debug_pubnames)
    C$debug_pubnames214                      0x0000505c   Data           0  dynamic_file.o(.debug_pubnames)
    C$debug_pubnames226                      0x000050cc   Data           0  dynamic_file.o(.debug_pubnames)
    C$debug_info297                          0x00005504   Data           0  dynamic_file.o(.debug_info)
    C$debug_info309                          0x000055e8   Data           0  dynamic_file.o(.debug_info)
    C$debug_info315                          0x00005758   Data           0  dynamic_file.o(.debug_info)
    C$debug_info303                          0x000058d0   Data           0  dynamic_file.o(.debug_info)
    C$debug_info27                           0x00005b00   Data           0  dynamic_file.o(.debug_info)
    C$debug_info69                           0x00005d34   Data           0  dynamic_file.o(.debug_info)
    C$debug_info81                           0x00005fb8   Data           0  dynamic_file.o(.debug_info)
    C$debug_info117                          0x000061b4   Data           0  dynamic_file.o(.debug_info)
    C$debug_info177                          0x00006334   Data           0  dynamic_file.o(.debug_info)
    C$debug_info201                          0x00006eec   Data           0  dynamic_file.o(.debug_info)
    C$debug_info213                          0x0000716c   Data           0  dynamic_file.o(.debug_info)
    C$debug_info225                          0x000072a8   Data           0  dynamic_file.o(.debug_info)
    D:\software\QQfile_recv\T808_Protocol\dynamic_app\dynamic\dynamic_init.c 0x00000000   Number         0  dynamic_init.o ABSOLUTE
    .text                                    0x003871d0   ARM Code       0  dynamic_init.o(.text)
    .bss                                     0x00399dd8   Data           0  dynamic_init.o(.bss)
    C$debug_macinfo35                        0x00000000   Data           0  dynamic_file.o(.debug_macinfo)
    C$debug_abbrev0                          0x00000010   Data           0  dynamic_file.o(.debug_abbrev)
    C$debug_frame313                         0x0000008c   Data           0  dynamic_init.o(.debug_frame)
    C$debug_info45                           0x00000090   Data           0  dynamic_file.o(.debug_info)
    C$debug_pubnames34                       0x000000d4   Data           0  dynamic_file.o(.debug_pubnames)
    C$debug_line32                           0x00000154   Data           0  dynamic_file.o(.debug_line)
    C$debug_macinfo47                        0x0000015c   Data           0  dynamic_file.o(.debug_macinfo)
    C$debug_line44                           0x000001a4   Data           0  dynamic_file.o(.debug_line)
    C$debug_pubnames46                       0x000001b4   Data           0  dynamic_file.o(.debug_pubnames)
    C$debug_line74                           0x00000210   Data           0  dynamic_file.o(.debug_line)
    C$debug_loc312                           0x0000021c   Data           0  dynamic_init.o(.debug_loc)
    C$debug_line86                           0x00000290   Data           0  dynamic_file.o(.debug_line)
    C$debug_line122                          0x00000310   Data           0  dynamic_file.o(.debug_line)
    C$debug_line182                          0x0000038c   Data           0  dynamic_file.o(.debug_line)
    C$debug_line206                          0x0000043c   Data           0  dynamic_file.o(.debug_line)
    C$debug_line218                          0x000004ec   Data           0  dynamic_file.o(.debug_line)
    C$debug_line230                          0x0000059c   Data           0  dynamic_file.o(.debug_line)
    C$debug_line2                            0x00000658   Data           0  dynamic_init.o(.debug_line)
    C$debug_line308                          0x00000748   Data           0  dynamic_init.o(.debug_line)
    C$debug_macinfo77                        0x0000094c   Data           0  dynamic_file.o(.debug_macinfo)
    C$debug_macinfo89                        0x00000984   Data           0  dynamic_file.o(.debug_macinfo)
    C$debug_macinfo125                       0x00000a1c   Data           0  dynamic_file.o(.debug_macinfo)
    C$debug_macinfo185                       0x00000a64   Data           0  dynamic_file.o(.debug_macinfo)
    C$debug_macinfo209                       0x00000d04   Data           0  dynamic_file.o(.debug_macinfo)
    C$debug_macinfo221                       0x00000d1c   Data           0  dynamic_file.o(.debug_macinfo)
    C$debug_macinfo233                       0x00000d84   Data           0  dynamic_file.o(.debug_macinfo)
    C$debug_macinfo5                         0x00000dfc   Data           0  dynamic_init.o(.debug_macinfo)
    C$debug_pubnames76                       0x00004a64   Data           0  dynamic_file.o(.debug_pubnames)
    C$debug_pubnames88                       0x00004bbc   Data           0  dynamic_file.o(.debug_pubnames)
    C$debug_pubnames124                      0x00004c74   Data           0  dynamic_file.o(.debug_pubnames)
    C$debug_pubnames184                      0x00004cd4   Data           0  dynamic_file.o(.debug_pubnames)
    C$debug_pubnames208                      0x00004e44   Data           0  dynamic_file.o(.debug_pubnames)
    C$debug_pubnames220                      0x0000505c   Data           0  dynamic_file.o(.debug_pubnames)
    C$debug_pubnames232                      0x000050cc   Data           0  dynamic_file.o(.debug_pubnames)
    C$debug_pubnames304                      0x0000539c   Data           0  dynamic_init.o(.debug_pubnames)
    C$debug_pubnames4                        0x000053c8   Data           0  dynamic_init.o(.debug_pubnames)
    C$debug_pubnames310                      0x00005444   Data           0  dynamic_init.o(.debug_pubnames)
    C$debug_info33                           0x00005b00   Data           0  dynamic_file.o(.debug_info)
    C$debug_info75                           0x00005d34   Data           0  dynamic_file.o(.debug_info)
    C$debug_info87                           0x00005fb8   Data           0  dynamic_file.o(.debug_info)
    C$debug_info123                          0x000061b4   Data           0  dynamic_file.o(.debug_info)
    C$debug_info183                          0x00006334   Data           0  dynamic_file.o(.debug_info)
    C$debug_info207                          0x00006eec   Data           0  dynamic_file.o(.debug_info)
    C$debug_info219                          0x0000716c   Data           0  dynamic_file.o(.debug_info)
    C$debug_info231                          0x000072a8   Data           0  dynamic_file.o(.debug_info)
    C$debug_info3                            0x000075f4   Data           0  dynamic_init.o(.debug_info)
    C$debug_info303                          0x0000770c   Data           0  dynamic_init.o(.debug_info)
    C$debug_info309                          0x000077dc   Data           0  dynamic_init.o(.debug_info)
    .bss$2                                   0x00399dd8   Data           0  dynamic_init.o(.bss)
    D:\software\QQfile_recv\T808_Protocol\dynamic_app\dynamic\dynamic_msg_at.c 0x00000000   Number         0  dynamic_msg_at.o ABSOLUTE
    .text                                    0x003873f0   ARM Code       0  dynamic_msg_at.o(.text)
    .bss                                     0x00399ddc   Data           0  dynamic_msg_at.o(.bss)
    C$debug_macinfo29                        0x00000000   Data           0  dynamic_file.o(.debug_macinfo)
    C$debug_abbrev0                          0x00000010   Data           0  dynamic_file.o(.debug_abbrev)
    C$debug_info39                           0x00000090   Data           0  dynamic_file.o(.debug_info)
    C$debug_pubnames28                       0x000000d4   Data           0  dynamic_file.o(.debug_pubnames)
    C$debug_frame301                         0x000000e8   Data           0  dynamic_msg_at.o(.debug_frame)
    C$debug_line26                           0x00000154   Data           0  dynamic_file.o(.debug_line)
    C$debug_macinfo41                        0x0000015c   Data           0  dynamic_file.o(.debug_macinfo)
    C$debug_line38                           0x000001a4   Data           0  dynamic_file.o(.debug_line)
    C$debug_pubnames40                       0x000001b4   Data           0  dynamic_file.o(.debug_pubnames)
    C$debug_line68                           0x00000210   Data           0  dynamic_file.o(.debug_line)
    C$debug_line80                           0x00000290   Data           0  dynamic_file.o(.debug_line)
    C$debug_line116                          0x00000310   Data           0  dynamic_file.o(.debug_line)
    C$debug_loc300                           0x00000388   Data           0  dynamic_msg_at.o(.debug_loc)
    C$debug_line176                          0x0000038c   Data           0  dynamic_file.o(.debug_line)
    C$debug_line200                          0x0000043c   Data           0  dynamic_file.o(.debug_line)
    C$debug_line212                          0x000004ec   Data           0  dynamic_file.o(.debug_line)
    C$debug_line224                          0x0000059c   Data           0  dynamic_file.o(.debug_line)
    C$debug_line2                            0x0000084c   Data           0  dynamic_msg_at.o(.debug_line)
    C$debug_line296                          0x0000090c   Data           0  dynamic_msg_at.o(.debug_line)
    C$debug_macinfo71                        0x0000094c   Data           0  dynamic_file.o(.debug_macinfo)
    C$debug_macinfo83                        0x00000984   Data           0  dynamic_file.o(.debug_macinfo)
    C$debug_macinfo119                       0x00000a1c   Data           0  dynamic_file.o(.debug_macinfo)
    C$debug_macinfo179                       0x00000a64   Data           0  dynamic_file.o(.debug_macinfo)
    C$debug_macinfo203                       0x00000d04   Data           0  dynamic_file.o(.debug_macinfo)
    C$debug_macinfo215                       0x00000d1c   Data           0  dynamic_file.o(.debug_macinfo)
    C$debug_macinfo227                       0x00000d84   Data           0  dynamic_file.o(.debug_macinfo)
    C$debug_macinfo5                         0x00000fc0   Data           0  dynamic_msg_at.o(.debug_macinfo)
    C$debug_pubnames70                       0x00004a64   Data           0  dynamic_file.o(.debug_pubnames)
    C$debug_pubnames82                       0x00004bbc   Data           0  dynamic_file.o(.debug_pubnames)
    C$debug_pubnames118                      0x00004c74   Data           0  dynamic_file.o(.debug_pubnames)
    C$debug_pubnames178                      0x00004cd4   Data           0  dynamic_file.o(.debug_pubnames)
    C$debug_pubnames202                      0x00004e44   Data           0  dynamic_file.o(.debug_pubnames)
    C$debug_pubnames214                      0x0000505c   Data           0  dynamic_file.o(.debug_pubnames)
    C$debug_pubnames226                      0x000050cc   Data           0  dynamic_file.o(.debug_pubnames)
    C$debug_pubnames304                      0x00005480   Data           0  dynamic_msg_at.o(.debug_pubnames)
    C$debug_pubnames310                      0x000054b0   Data           0  dynamic_msg_at.o(.debug_pubnames)
    C$debug_pubnames316                      0x000054d8   Data           0  dynamic_msg_at.o(.debug_pubnames)
    C$debug_pubnames322                      0x00005508   Data           0  dynamic_msg_at.o(.debug_pubnames)
    C$debug_pubnames4                        0x00005534   Data           0  dynamic_msg_at.o(.debug_pubnames)
    C$debug_pubnames298                      0x0000556c   Data           0  dynamic_msg_at.o(.debug_pubnames)
    C$debug_info27                           0x00005b00   Data           0  dynamic_file.o(.debug_info)
    C$debug_info69                           0x00005d34   Data           0  dynamic_file.o(.debug_info)
    C$debug_info81                           0x00005fb8   Data           0  dynamic_file.o(.debug_info)
    C$debug_info117                          0x000061b4   Data           0  dynamic_file.o(.debug_info)
    C$debug_info177                          0x00006334   Data           0  dynamic_file.o(.debug_info)
    C$debug_info201                          0x00006eec   Data           0  dynamic_file.o(.debug_info)
    C$debug_info213                          0x0000716c   Data           0  dynamic_file.o(.debug_info)
    C$debug_info225                          0x000072a8   Data           0  dynamic_file.o(.debug_info)
    C$debug_info303                          0x00007a8c   Data           0  dynamic_msg_at.o(.debug_info)
    C$debug_info309                          0x00007b48   Data           0  dynamic_msg_at.o(.debug_info)
    C$debug_info3                            0x00007c50   Data           0  dynamic_msg_at.o(.debug_info)
    C$debug_info315                          0x00007d28   Data           0  dynamic_msg_at.o(.debug_info)
    C$debug_info321                          0x00007e34   Data           0  dynamic_msg_at.o(.debug_info)
    C$debug_info297                          0x00007ed0   Data           0  dynamic_msg_at.o(.debug_info)
    |L1.1584|                                0x00387a20   Data           0  dynamic_msg_at.o(.text)
    .bss$2                                   0x00399ddc   Data           0  dynamic_msg_at.o(.bss)
    s_cmd_num                                0x00399ddc   Data           4  dynamic_msg_at.o(.bss)
    s_dynamic_cmd_table                      0x00399de0   Data         960  dynamic_msg_at.o(.bss)
    D:\software\QQfile_recv\T808_Protocol\dynamic_app\dynamic\dynamic_reset.c 0x00000000   Number         0  dynamic_reset.o ABSOLUTE
    .bss                                     0x0039a1a0   Data           0  dynamic_reset.o(.bss)
    .text                                    0x00388778   ARM Code       0  dynamic_reset.o(.text)
    C$debug_macinfo29                        0x00000000   Data           0  dynamic_file.o(.debug_macinfo)
    C$debug_abbrev0                          0x00000010   Data           0  dynamic_file.o(.debug_abbrev)
    C$debug_info39                           0x00000090   Data           0  dynamic_file.o(.debug_info)
    C$debug_pubnames28                       0x000000d4   Data           0  dynamic_file.o(.debug_pubnames)
    C$debug_line26                           0x00000154   Data           0  dynamic_file.o(.debug_line)
    C$debug_macinfo41                        0x0000015c   Data           0  dynamic_file.o(.debug_macinfo)
    C$debug_line38                           0x000001a4   Data           0  dynamic_file.o(.debug_line)
    C$debug_pubnames40                       0x000001b4   Data           0  dynamic_file.o(.debug_pubnames)
    C$debug_line68                           0x00000210   Data           0  dynamic_file.o(.debug_line)
    C$debug_line80                           0x00000290   Data           0  dynamic_file.o(.debug_line)
    C$debug_line116                          0x00000310   Data           0  dynamic_file.o(.debug_line)
    C$debug_line176                          0x0000038c   Data           0  dynamic_file.o(.debug_line)
    C$debug_frame307                         0x000003d4   Data           0  dynamic_reset.o(.debug_frame)
    C$debug_line200                          0x0000043c   Data           0  dynamic_file.o(.debug_line)
    C$debug_line212                          0x000004ec   Data           0  dynamic_file.o(.debug_line)
    C$debug_line224                          0x0000059c   Data           0  dynamic_file.o(.debug_line)
    C$debug_macinfo71                        0x0000094c   Data           0  dynamic_file.o(.debug_macinfo)
    C$debug_macinfo83                        0x00000984   Data           0  dynamic_file.o(.debug_macinfo)
    C$debug_macinfo119                       0x00000a1c   Data           0  dynamic_file.o(.debug_macinfo)
    C$debug_macinfo179                       0x00000a64   Data           0  dynamic_file.o(.debug_macinfo)
    C$debug_macinfo203                       0x00000d04   Data           0  dynamic_file.o(.debug_macinfo)
    C$debug_macinfo215                       0x00000d1c   Data           0  dynamic_file.o(.debug_macinfo)
    C$debug_macinfo227                       0x00000d84   Data           0  dynamic_file.o(.debug_macinfo)
    C$debug_line2                            0x00000dc0   Data           0  dynamic_reset.o(.debug_line)
    C$debug_line302                          0x00000e80   Data           0  dynamic_reset.o(.debug_line)
    C$debug_macinfo5                         0x000011c8   Data           0  dynamic_reset.o(.debug_macinfo)
    C$debug_loc306                           0x00001adc   Data           0  dynamic_reset.o(.debug_loc)
    C$debug_pubnames70                       0x00004a64   Data           0  dynamic_file.o(.debug_pubnames)
    C$debug_pubnames82                       0x00004bbc   Data           0  dynamic_file.o(.debug_pubnames)
    C$debug_pubnames118                      0x00004c74   Data           0  dynamic_file.o(.debug_pubnames)
    C$debug_pubnames178                      0x00004cd4   Data           0  dynamic_file.o(.debug_pubnames)
    C$debug_pubnames202                      0x00004e44   Data           0  dynamic_file.o(.debug_pubnames)
    C$debug_pubnames214                      0x0000505c   Data           0  dynamic_file.o(.debug_pubnames)
    C$debug_pubnames226                      0x000050cc   Data           0  dynamic_file.o(.debug_pubnames)
    C$debug_pubnames298                      0x00005724   Data           0  dynamic_reset.o(.debug_pubnames)
    C$debug_pubnames310                      0x00005750   Data           0  dynamic_reset.o(.debug_pubnames)
    C$debug_pubnames316                      0x0000577c   Data           0  dynamic_reset.o(.debug_pubnames)
    C$debug_pubnames322                      0x000057ac   Data           0  dynamic_reset.o(.debug_pubnames)
    C$debug_pubnames328                      0x000057dc   Data           0  dynamic_reset.o(.debug_pubnames)
    C$debug_pubnames334                      0x00005808   Data           0  dynamic_reset.o(.debug_pubnames)
    C$debug_pubnames340                      0x00005834   Data           0  dynamic_reset.o(.debug_pubnames)
    C$debug_pubnames4                        0x00005864   Data           0  dynamic_reset.o(.debug_pubnames)
    C$debug_pubnames304                      0x00005888   Data           0  dynamic_reset.o(.debug_pubnames)
    C$debug_info27                           0x00005b00   Data           0  dynamic_file.o(.debug_info)
    C$debug_info69                           0x00005d34   Data           0  dynamic_file.o(.debug_info)
    C$debug_info81                           0x00005fb8   Data           0  dynamic_file.o(.debug_info)
    C$debug_info117                          0x000061b4   Data           0  dynamic_file.o(.debug_info)
    C$debug_info177                          0x00006334   Data           0  dynamic_file.o(.debug_info)
    C$debug_info201                          0x00006eec   Data           0  dynamic_file.o(.debug_info)
    C$debug_info213                          0x0000716c   Data           0  dynamic_file.o(.debug_info)
    C$debug_info225                          0x000072a8   Data           0  dynamic_file.o(.debug_info)
    C$debug_info3                            0x00009c74   Data           0  dynamic_reset.o(.debug_info)
    C$debug_info297                          0x00009d20   Data           0  dynamic_reset.o(.debug_info)
    C$debug_info309                          0x00009dd0   Data           0  dynamic_reset.o(.debug_info)
    C$debug_info315                          0x00009ec0   Data           0  dynamic_reset.o(.debug_info)
    C$debug_info321                          0x00009fa0   Data           0  dynamic_reset.o(.debug_info)
    C$debug_info327                          0x0000a040   Data           0  dynamic_reset.o(.debug_info)
    C$debug_info333                          0x0000a0dc   Data           0  dynamic_reset.o(.debug_info)
    C$debug_info339                          0x0000a178   Data           0  dynamic_reset.o(.debug_info)
    C$debug_info303                          0x0000a248   Data           0  dynamic_reset.o(.debug_info)
    .bss$2                                   0x0039a1a0   Data           0  dynamic_reset.o(.bss)
    poweroff_status@dynamic_start_reset_0    0x0039a1a0   Data           1  dynamic_reset.o(.bss)
    work_time@dynamic_reset_check_pro_0      0x0039a1a4   Data           4  dynamic_reset.o(.bss)
    s_sys_info                               0x0039a1a8   Data         612  dynamic_reset.o(.bss)
    D:\software\QQfile_recv\T808_Protocol\dynamic_app\dynamic\dynamic_telephony.c 0x00000000   Number         0  dynamic_telephony.o ABSOLUTE
    .text                                    0x00388bbc   ARM Code       0  dynamic_telephony.o(.text)
    C$debug_macinfo29                        0x00000000   Data           0  dynamic_file.o(.debug_macinfo)
    C$debug_abbrev0                          0x00000010   Data           0  dynamic_file.o(.debug_abbrev)
    C$debug_info39                           0x00000090   Data           0  dynamic_file.o(.debug_info)
    C$debug_pubnames28                       0x000000d4   Data           0  dynamic_file.o(.debug_pubnames)
    C$debug_line26                           0x00000154   Data           0  dynamic_file.o(.debug_line)
    C$debug_macinfo41                        0x0000015c   Data           0  dynamic_file.o(.debug_macinfo)
    C$debug_line38                           0x000001a4   Data           0  dynamic_file.o(.debug_line)
    C$debug_pubnames40                       0x000001b4   Data           0  dynamic_file.o(.debug_pubnames)
    C$debug_line68                           0x00000210   Data           0  dynamic_file.o(.debug_line)
    C$debug_line80                           0x00000290   Data           0  dynamic_file.o(.debug_line)
    C$debug_line116                          0x00000310   Data           0  dynamic_file.o(.debug_line)
    C$debug_line176                          0x0000038c   Data           0  dynamic_file.o(.debug_line)
    C$debug_line200                          0x0000043c   Data           0  dynamic_file.o(.debug_line)
    C$debug_line212                          0x000004ec   Data           0  dynamic_file.o(.debug_line)
    C$debug_frame307                         0x00000530   Data           0  dynamic_telephony.o(.debug_frame)
    C$debug_line224                          0x0000059c   Data           0  dynamic_file.o(.debug_line)
    C$debug_macinfo71                        0x0000094c   Data           0  dynamic_file.o(.debug_macinfo)
    C$debug_macinfo83                        0x00000984   Data           0  dynamic_file.o(.debug_macinfo)
    C$debug_macinfo119                       0x00000a1c   Data           0  dynamic_file.o(.debug_macinfo)
    C$debug_macinfo179                       0x00000a64   Data           0  dynamic_file.o(.debug_macinfo)
    C$debug_macinfo203                       0x00000d04   Data           0  dynamic_file.o(.debug_macinfo)
    C$debug_macinfo215                       0x00000d1c   Data           0  dynamic_file.o(.debug_macinfo)
    C$debug_macinfo227                       0x00000d84   Data           0  dynamic_file.o(.debug_macinfo)
    C$debug_line302                          0x0000100c   Data           0  dynamic_telephony.o(.debug_line)
    C$debug_loc306                           0x00001ddc   Data           0  dynamic_telephony.o(.debug_loc)
    C$debug_pubnames70                       0x00004a64   Data           0  dynamic_file.o(.debug_pubnames)
    C$debug_pubnames82                       0x00004bbc   Data           0  dynamic_file.o(.debug_pubnames)
    C$debug_pubnames118                      0x00004c74   Data           0  dynamic_file.o(.debug_pubnames)
    C$debug_pubnames178                      0x00004cd4   Data           0  dynamic_file.o(.debug_pubnames)
    C$debug_pubnames202                      0x00004e44   Data           0  dynamic_file.o(.debug_pubnames)
    C$debug_pubnames214                      0x0000505c   Data           0  dynamic_file.o(.debug_pubnames)
    C$debug_pubnames226                      0x000050cc   Data           0  dynamic_file.o(.debug_pubnames)
    C$debug_pubnames298                      0x000059b8   Data           0  dynamic_telephony.o(.debug_pubnames)
    C$debug_pubnames310                      0x000059e8   Data           0  dynamic_telephony.o(.debug_pubnames)
    C$debug_pubnames304                      0x00005a18   Data           0  dynamic_telephony.o(.debug_pubnames)
    C$debug_info27                           0x00005b00   Data           0  dynamic_file.o(.debug_info)
    C$debug_info69                           0x00005d34   Data           0  dynamic_file.o(.debug_info)
    C$debug_info81                           0x00005fb8   Data           0  dynamic_file.o(.debug_info)
    C$debug_info117                          0x000061b4   Data           0  dynamic_file.o(.debug_info)
    C$debug_info177                          0x00006334   Data           0  dynamic_file.o(.debug_info)
    C$debug_info201                          0x00006eec   Data           0  dynamic_file.o(.debug_info)
    C$debug_info213                          0x0000716c   Data           0  dynamic_file.o(.debug_info)
    C$debug_info225                          0x000072a8   Data           0  dynamic_file.o(.debug_info)
    C$debug_info297                          0x0000a7d4   Data           0  dynamic_telephony.o(.debug_info)
    C$debug_info309                          0x0000a898   Data           0  dynamic_telephony.o(.debug_info)
    C$debug_info303                          0x0000a938   Data           0  dynamic_telephony.o(.debug_info)
    D:\software\QQfile_recv\T808_Protocol\dynamic_app\dynamic\dynamic_timer.c 0x00000000   Number         0  dynamic_timer.o ABSOLUTE
    C$debug_macinfo29                        0x00000000   Data           0  dynamic_file.o(.debug_macinfo)
    C$debug_abbrev0                          0x00000010   Data           0  dynamic_file.o(.debug_abbrev)
    C$debug_info39                           0x00000090   Data           0  dynamic_file.o(.debug_info)
    C$debug_pubnames28                       0x000000d4   Data           0  dynamic_file.o(.debug_pubnames)
    C$debug_line26                           0x00000154   Data           0  dynamic_file.o(.debug_line)
    C$debug_macinfo41                        0x0000015c   Data           0  dynamic_file.o(.debug_macinfo)
    C$debug_line38                           0x000001a4   Data           0  dynamic_file.o(.debug_line)
    C$debug_pubnames40                       0x000001b4   Data           0  dynamic_file.o(.debug_pubnames)
    C$debug_line68                           0x00000210   Data           0  dynamic_file.o(.debug_line)
    C$debug_line80                           0x00000290   Data           0  dynamic_file.o(.debug_line)
    C$debug_line116                          0x00000310   Data           0  dynamic_file.o(.debug_line)
    C$debug_line176                          0x0000038c   Data           0  dynamic_file.o(.debug_line)
    C$debug_line200                          0x0000043c   Data           0  dynamic_file.o(.debug_line)
    C$debug_line212                          0x000004ec   Data           0  dynamic_file.o(.debug_line)
    C$debug_line224                          0x0000059c   Data           0  dynamic_file.o(.debug_line)
    C$debug_macinfo71                        0x0000094c   Data           0  dynamic_file.o(.debug_macinfo)
    C$debug_macinfo83                        0x00000984   Data           0  dynamic_file.o(.debug_macinfo)
    C$debug_macinfo119                       0x00000a1c   Data           0  dynamic_file.o(.debug_macinfo)
    C$debug_macinfo179                       0x00000a64   Data           0  dynamic_file.o(.debug_macinfo)
    C$debug_macinfo203                       0x00000d04   Data           0  dynamic_file.o(.debug_macinfo)
    C$debug_macinfo215                       0x00000d1c   Data           0  dynamic_file.o(.debug_macinfo)
    C$debug_macinfo227                       0x00000d84   Data           0  dynamic_file.o(.debug_macinfo)
    C$debug_pubnames70                       0x00004a64   Data           0  dynamic_file.o(.debug_pubnames)
    C$debug_pubnames82                       0x00004bbc   Data           0  dynamic_file.o(.debug_pubnames)
    C$debug_pubnames118                      0x00004c74   Data           0  dynamic_file.o(.debug_pubnames)
    C$debug_pubnames178                      0x00004cd4   Data           0  dynamic_file.o(.debug_pubnames)
    C$debug_pubnames202                      0x00004e44   Data           0  dynamic_file.o(.debug_pubnames)
    C$debug_pubnames214                      0x0000505c   Data           0  dynamic_file.o(.debug_pubnames)
    C$debug_pubnames226                      0x000050cc   Data           0  dynamic_file.o(.debug_pubnames)
    C$debug_info27                           0x00005b00   Data           0  dynamic_file.o(.debug_info)
    C$debug_info69                           0x00005d34   Data           0  dynamic_file.o(.debug_info)
    C$debug_info81                           0x00005fb8   Data           0  dynamic_file.o(.debug_info)
    C$debug_info117                          0x000061b4   Data           0  dynamic_file.o(.debug_info)
    C$debug_info177                          0x00006334   Data           0  dynamic_file.o(.debug_info)
    C$debug_info201                          0x00006eec   Data           0  dynamic_file.o(.debug_info)
    C$debug_info213                          0x0000716c   Data           0  dynamic_file.o(.debug_info)
    C$debug_info225                          0x000072a8   Data           0  dynamic_file.o(.debug_info)
    D:\software\QQfile_recv\T808_Protocol\dynamic_app\dynamic\dynamic_sms.c 0x00000000   Number         0  dynamic_sms.o ABSOLUTE
    .text                                    0x00388c40   ARM Code       0  dynamic_sms.o(.text)
    .bss                                     0x0039a40c   Data           0  dynamic_sms.o(.bss)
    C$debug_macinfo29                        0x00000000   Data           0  dynamic_file.o(.debug_macinfo)
    C$debug_abbrev0                          0x00000010   Data           0  dynamic_file.o(.debug_abbrev)
    C$debug_info39                           0x00000090   Data           0  dynamic_file.o(.debug_info)
    C$debug_pubnames28                       0x000000d4   Data           0  dynamic_file.o(.debug_pubnames)
    C$debug_line26                           0x00000154   Data           0  dynamic_file.o(.debug_line)
    C$debug_macinfo41                        0x0000015c   Data           0  dynamic_file.o(.debug_macinfo)
    C$debug_line38                           0x000001a4   Data           0  dynamic_file.o(.debug_line)
    C$debug_pubnames40                       0x000001b4   Data           0  dynamic_file.o(.debug_pubnames)
    C$debug_line68                           0x00000210   Data           0  dynamic_file.o(.debug_line)
    C$debug_line80                           0x00000290   Data           0  dynamic_file.o(.debug_line)
    C$debug_line116                          0x00000310   Data           0  dynamic_file.o(.debug_line)
    C$debug_line176                          0x0000038c   Data           0  dynamic_file.o(.debug_line)
    C$debug_line200                          0x0000043c   Data           0  dynamic_file.o(.debug_line)
    C$debug_line212                          0x000004ec   Data           0  dynamic_file.o(.debug_line)
    C$debug_line224                          0x0000059c   Data           0  dynamic_file.o(.debug_line)
    C$debug_frame307                         0x000005a4   Data           0  dynamic_sms.o(.debug_frame)
    C$debug_macinfo71                        0x0000094c   Data           0  dynamic_file.o(.debug_macinfo)
    C$debug_macinfo83                        0x00000984   Data           0  dynamic_file.o(.debug_macinfo)
    C$debug_macinfo119                       0x00000a1c   Data           0  dynamic_file.o(.debug_macinfo)
    C$debug_macinfo179                       0x00000a64   Data           0  dynamic_file.o(.debug_macinfo)
    C$debug_macinfo203                       0x00000d04   Data           0  dynamic_file.o(.debug_macinfo)
    C$debug_macinfo215                       0x00000d1c   Data           0  dynamic_file.o(.debug_macinfo)
    C$debug_macinfo227                       0x00000d84   Data           0  dynamic_file.o(.debug_macinfo)
    C$debug_line2                            0x0000109c   Data           0  dynamic_sms.o(.debug_line)
    C$debug_line302                          0x00001158   Data           0  dynamic_sms.o(.debug_line)
    C$debug_macinfo5                         0x0000139c   Data           0  dynamic_sms.o(.debug_macinfo)
    C$debug_loc306                           0x00001e88   Data           0  dynamic_sms.o(.debug_loc)
    C$debug_pubnames70                       0x00004a64   Data           0  dynamic_file.o(.debug_pubnames)
    C$debug_pubnames82                       0x00004bbc   Data           0  dynamic_file.o(.debug_pubnames)
    C$debug_pubnames118                      0x00004c74   Data           0  dynamic_file.o(.debug_pubnames)
    C$debug_pubnames178                      0x00004cd4   Data           0  dynamic_file.o(.debug_pubnames)
    C$debug_pubnames202                      0x00004e44   Data           0  dynamic_file.o(.debug_pubnames)
    C$debug_pubnames214                      0x0000505c   Data           0  dynamic_file.o(.debug_pubnames)
    C$debug_pubnames226                      0x000050cc   Data           0  dynamic_file.o(.debug_pubnames)
    C$debug_pubnames298                      0x00005a64   Data           0  dynamic_sms.o(.debug_pubnames)
    C$debug_pubnames310                      0x00005a94   Data           0  dynamic_sms.o(.debug_pubnames)
    C$debug_pubnames316                      0x00005abc   Data           0  dynamic_sms.o(.debug_pubnames)
    C$debug_pubnames322                      0x00005ae8   Data           0  dynamic_sms.o(.debug_pubnames)
    C$debug_info27                           0x00005b00   Data           0  dynamic_file.o(.debug_info)
    C$debug_pubnames328                      0x00005b18   Data           0  dynamic_sms.o(.debug_pubnames)
    C$debug_pubnames334                      0x00005b44   Data           0  dynamic_sms.o(.debug_pubnames)
    C$debug_pubnames4                        0x00005b6c   Data           0  dynamic_sms.o(.debug_pubnames)
    C$debug_pubnames304                      0x00005b90   Data           0  dynamic_sms.o(.debug_pubnames)
    C$debug_info69                           0x00005d34   Data           0  dynamic_file.o(.debug_info)
    C$debug_info81                           0x00005fb8   Data           0  dynamic_file.o(.debug_info)
    C$debug_info117                          0x000061b4   Data           0  dynamic_file.o(.debug_info)
    C$debug_info177                          0x00006334   Data           0  dynamic_file.o(.debug_info)
    C$debug_info201                          0x00006eec   Data           0  dynamic_file.o(.debug_info)
    C$debug_info213                          0x0000716c   Data           0  dynamic_file.o(.debug_info)
    C$debug_info225                          0x000072a8   Data           0  dynamic_file.o(.debug_info)
    C$debug_info297                          0x0000aa00   Data           0  dynamic_sms.o(.debug_info)
    C$debug_info309                          0x0000aabc   Data           0  dynamic_sms.o(.debug_info)
    C$debug_info315                          0x0000aba8   Data           0  dynamic_sms.o(.debug_info)
    C$debug_info321                          0x0000ad00   Data           0  dynamic_sms.o(.debug_info)
    C$debug_info327                          0x0000addc   Data           0  dynamic_sms.o(.debug_info)
    C$debug_info333                          0x0000af1c   Data           0  dynamic_sms.o(.debug_info)
    C$debug_info3                            0x0000afcc   Data           0  dynamic_sms.o(.debug_info)
    C$debug_info303                          0x0000b070   Data           0  dynamic_sms.o(.debug_info)
    .bss$2                                   0x0039a40c   Data           0  dynamic_sms.o(.bss)
    s_sms_list                               0x0039a40c   Data        2248  dynamic_sms.o(.bss)
    D:\software\QQfile_recv\T808_Protocol\dynamic_app\dynamic\dynamic_gps.c 0x00000000   Number         0  dynamic_gps.o ABSOLUTE
    .text                                    0x00389290   ARM Code       0  dynamic_gps.o(.text)
    .data                                    0x00399dbc   Data           0  dynamic_gps.o(.data)
    .bss                                     0x0039acd4   Data           0  dynamic_gps.o(.bss)
    C$debug_macinfo29                        0x00000000   Data           0  dynamic_file.o(.debug_macinfo)
    C$debug_abbrev0                          0x00000010   Data           0  dynamic_file.o(.debug_abbrev)
    C$debug_info39                           0x00000090   Data           0  dynamic_file.o(.debug_info)
    C$debug_pubnames28                       0x000000d4   Data           0  dynamic_file.o(.debug_pubnames)
    C$debug_line26                           0x00000154   Data           0  dynamic_file.o(.debug_line)
    C$debug_macinfo41                        0x0000015c   Data           0  dynamic_file.o(.debug_macinfo)
    C$debug_line38                           0x000001a4   Data           0  dynamic_file.o(.debug_line)
    C$debug_pubnames40                       0x000001b4   Data           0  dynamic_file.o(.debug_pubnames)
    C$debug_line68                           0x00000210   Data           0  dynamic_file.o(.debug_line)
    C$debug_line80                           0x00000290   Data           0  dynamic_file.o(.debug_line)
    C$debug_line116                          0x00000310   Data           0  dynamic_file.o(.debug_line)
    C$debug_line176                          0x0000038c   Data           0  dynamic_file.o(.debug_line)
    C$debug_line200                          0x0000043c   Data           0  dynamic_file.o(.debug_line)
    C$debug_line212                          0x000004ec   Data           0  dynamic_file.o(.debug_line)
    C$debug_line224                          0x0000059c   Data           0  dynamic_file.o(.debug_line)
    C$debug_frame307                         0x00000758   Data           0  dynamic_gps.o(.debug_frame)
    C$debug_macinfo71                        0x0000094c   Data           0  dynamic_file.o(.debug_macinfo)
    C$debug_macinfo83                        0x00000984   Data           0  dynamic_file.o(.debug_macinfo)
    C$debug_macinfo119                       0x00000a1c   Data           0  dynamic_file.o(.debug_macinfo)
    C$debug_macinfo179                       0x00000a64   Data           0  dynamic_file.o(.debug_macinfo)
    C$debug_macinfo203                       0x00000d04   Data           0  dynamic_file.o(.debug_macinfo)
    C$debug_macinfo215                       0x00000d1c   Data           0  dynamic_file.o(.debug_macinfo)
    C$debug_macinfo227                       0x00000d84   Data           0  dynamic_file.o(.debug_macinfo)
    C$debug_line2                            0x00001330   Data           0  dynamic_gps.o(.debug_line)
    C$debug_line302                          0x000013ec   Data           0  dynamic_gps.o(.debug_line)
    C$debug_macinfo5                         0x0000155c   Data           0  dynamic_gps.o(.debug_macinfo)
    C$debug_loc306                           0x000023c0   Data           0  dynamic_gps.o(.debug_loc)
    C$debug_pubnames70                       0x00004a64   Data           0  dynamic_file.o(.debug_pubnames)
    C$debug_pubnames82                       0x00004bbc   Data           0  dynamic_file.o(.debug_pubnames)
    C$debug_pubnames118                      0x00004c74   Data           0  dynamic_file.o(.debug_pubnames)
    C$debug_pubnames178                      0x00004cd4   Data           0  dynamic_file.o(.debug_pubnames)
    C$debug_pubnames202                      0x00004e44   Data           0  dynamic_file.o(.debug_pubnames)
    C$debug_pubnames214                      0x0000505c   Data           0  dynamic_file.o(.debug_pubnames)
    C$debug_pubnames226                      0x000050cc   Data           0  dynamic_file.o(.debug_pubnames)
    C$debug_info27                           0x00005b00   Data           0  dynamic_file.o(.debug_info)
    C$debug_pubnames298                      0x00005cb0   Data           0  dynamic_gps.o(.debug_pubnames)
    C$debug_pubnames310                      0x00005cdc   Data           0  dynamic_gps.o(.debug_pubnames)
    C$debug_pubnames316                      0x00005d0c   Data           0  dynamic_gps.o(.debug_pubnames)
    C$debug_info69                           0x00005d34   Data           0  dynamic_file.o(.debug_info)
    C$debug_pubnames322                      0x00005d38   Data           0  dynamic_gps.o(.debug_pubnames)
    C$debug_pubnames328                      0x00005d64   Data           0  dynamic_gps.o(.debug_pubnames)
    C$debug_pubnames334                      0x00005d9c   Data           0  dynamic_gps.o(.debug_pubnames)
    C$debug_pubnames340                      0x00005dc4   Data           0  dynamic_gps.o(.debug_pubnames)
    C$debug_pubnames346                      0x00005df0   Data           0  dynamic_gps.o(.debug_pubnames)
    C$debug_pubnames352                      0x00005e1c   Data           0  dynamic_gps.o(.debug_pubnames)
    C$debug_pubnames358                      0x00005e4c   Data           0  dynamic_gps.o(.debug_pubnames)
    C$debug_pubnames364                      0x00005e78   Data           0  dynamic_gps.o(.debug_pubnames)
    C$debug_pubnames4                        0x00005ea0   Data           0  dynamic_gps.o(.debug_pubnames)
    C$debug_pubnames304                      0x00005f78   Data           0  dynamic_gps.o(.debug_pubnames)
    C$debug_info81                           0x00005fb8   Data           0  dynamic_file.o(.debug_info)
    C$debug_info117                          0x000061b4   Data           0  dynamic_file.o(.debug_info)
    C$debug_info177                          0x00006334   Data           0  dynamic_file.o(.debug_info)
    C$debug_info201                          0x00006eec   Data           0  dynamic_file.o(.debug_info)
    C$debug_info213                          0x0000716c   Data           0  dynamic_file.o(.debug_info)
    C$debug_info225                          0x000072a8   Data           0  dynamic_file.o(.debug_info)
    C$debug_info297                          0x0000b7b0   Data           0  dynamic_gps.o(.debug_info)
    C$debug_info309                          0x0000b854   Data           0  dynamic_gps.o(.debug_info)
    C$debug_info315                          0x0000b920   Data           0  dynamic_gps.o(.debug_info)
    C$debug_info3                            0x0000ba04   Data           0  dynamic_gps.o(.debug_info)
    C$debug_info321                          0x0000bbb4   Data           0  dynamic_gps.o(.debug_info)
    C$debug_info327                          0x0000bc64   Data           0  dynamic_gps.o(.debug_info)
    C$debug_info333                          0x0000bd20   Data           0  dynamic_gps.o(.debug_info)
    C$debug_info339                          0x0000bdd8   Data           0  dynamic_gps.o(.debug_info)
    C$debug_info345                          0x0000be88   Data           0  dynamic_gps.o(.debug_info)
    C$debug_info351                          0x0000bf68   Data           0  dynamic_gps.o(.debug_info)
    C$debug_info357                          0x0000c080   Data           0  dynamic_gps.o(.debug_info)
    C$debug_info363                          0x0000c15c   Data           0  dynamic_gps.o(.debug_info)
    C$debug_info303                          0x0000c2cc   Data           0  dynamic_gps.o(.debug_info)
    |L1.1124|                                0x003896f4   Data           0  dynamic_gps.o(.text)
    .data$0                                  0x00399dbc   Data           0  dynamic_gps.o(.data)
    cur_state@dynamic_gps_pow_ctrl_0         0x00399dbc   Data           1  dynamic_gps.o(.data)
    .bss$2                                   0x0039acd4   Data           0  dynamic_gps.o(.bss)
    s_aiding_state                           0x0039acd4   Data           1  dynamic_gps.o(.bss)
    s_aid_cnt                                0x0039acd5   Data           1  dynamic_gps.o(.bss)
    s_is_inflection_point                    0x0039acd6   Data           1  dynamic_gps.o(.bss)
    s_gps_log                                0x0039acd7   Data           1  dynamic_gps.o(.bss)
    timeIndex@dynamic_gps_check_inflection_0 0x0039acd8   Data           1  dynamic_gps.o(.bss)
    gps_filter@dynamic_gps_recv_cb_0         0x0039acd9   Data           1  dynamic_gps.o(.bss)
    satnum_cnt@dynamic_gps_recv_cb_1         0x0039acda   Data           1  dynamic_gps.o(.bss)
    check_time@dynamic_gps_recv_cb_3         0x0039acdb   Data           1  dynamic_gps.o(.bss)
    onoff_buf@dynamic_gps_task_0             0x0039acdc   Data           1  dynamic_gps.o(.bss)
    save_endgps@dynamic_gps_task_1           0x0039acdd   Data           1  dynamic_gps.o(.bss)
    invalid@dynamic_gps_recv_cb_2            0x0039acde   Data           2  dynamic_gps.o(.bss)
    stLastGpsInfo@dynamic_gps_check_inflection_1 0x0039ace0   Data          96  dynamic_gps.o(.bss)
    s_gps_data                               0x0039ad40   Data         568  dynamic_gps.o(.bss)
    s_gps_info                               0x0039af78   Data          96  dynamic_gps.o(.bss)
    D:\software\QQfile_recv\T808_Protocol\dynamic_app\dynamic\dynamic_sensor.c 0x00000000   Number         0  dynamic_sensor.o ABSOLUTE
    .bss                                     0x0039afd8   Data           0  dynamic_sensor.o(.bss)
    .data                                    0x00399dc0   Data           0  dynamic_sensor.o(.data)
    .text                                    0x00389fd8   ARM Code       0  dynamic_sensor.o(.text)
    C$debug_macinfo29                        0x00000000   Data           0  dynamic_file.o(.debug_macinfo)
    C$debug_abbrev0                          0x00000010   Data           0  dynamic_file.o(.debug_abbrev)
    C$debug_info39                           0x00000090   Data           0  dynamic_file.o(.debug_info)
    C$debug_pubnames28                       0x000000d4   Data           0  dynamic_file.o(.debug_pubnames)
    C$debug_line26                           0x00000154   Data           0  dynamic_file.o(.debug_line)
    C$debug_macinfo41                        0x0000015c   Data           0  dynamic_file.o(.debug_macinfo)
    C$debug_line38                           0x000001a4   Data           0  dynamic_file.o(.debug_line)
    C$debug_pubnames40                       0x000001b4   Data           0  dynamic_file.o(.debug_pubnames)
    C$debug_line68                           0x00000210   Data           0  dynamic_file.o(.debug_line)
    C$debug_line80                           0x00000290   Data           0  dynamic_file.o(.debug_line)
    C$debug_line116                          0x00000310   Data           0  dynamic_file.o(.debug_line)
    C$debug_line176                          0x0000038c   Data           0  dynamic_file.o(.debug_line)
    C$debug_line200                          0x0000043c   Data           0  dynamic_file.o(.debug_line)
    C$debug_line212                          0x000004ec   Data           0  dynamic_file.o(.debug_line)
    C$debug_line224                          0x0000059c   Data           0  dynamic_file.o(.debug_line)
    C$debug_macinfo71                        0x0000094c   Data           0  dynamic_file.o(.debug_macinfo)
    C$debug_macinfo83                        0x00000984   Data           0  dynamic_file.o(.debug_macinfo)
    C$debug_frame307                         0x000009d0   Data           0  dynamic_sensor.o(.debug_frame)
    C$debug_macinfo119                       0x00000a1c   Data           0  dynamic_file.o(.debug_macinfo)
    C$debug_macinfo179                       0x00000a64   Data           0  dynamic_file.o(.debug_macinfo)
    C$debug_macinfo203                       0x00000d04   Data           0  dynamic_file.o(.debug_macinfo)
    C$debug_macinfo215                       0x00000d1c   Data           0  dynamic_file.o(.debug_macinfo)
    C$debug_macinfo227                       0x00000d84   Data           0  dynamic_file.o(.debug_macinfo)
    C$debug_line2                            0x00001738   Data           0  dynamic_sensor.o(.debug_line)
    C$debug_macinfo5                         0x00001744   Data           0  dynamic_sensor.o(.debug_macinfo)
    C$debug_line302                          0x000017f8   Data           0  dynamic_sensor.o(.debug_line)
    C$debug_loc306                           0x00002cf4   Data           0  dynamic_sensor.o(.debug_loc)
    C$debug_pubnames70                       0x00004a64   Data           0  dynamic_file.o(.debug_pubnames)
    C$debug_pubnames82                       0x00004bbc   Data           0  dynamic_file.o(.debug_pubnames)
    C$debug_pubnames118                      0x00004c74   Data           0  dynamic_file.o(.debug_pubnames)
    C$debug_pubnames178                      0x00004cd4   Data           0  dynamic_file.o(.debug_pubnames)
    C$debug_pubnames202                      0x00004e44   Data           0  dynamic_file.o(.debug_pubnames)
    C$debug_pubnames214                      0x0000505c   Data           0  dynamic_file.o(.debug_pubnames)
    C$debug_pubnames226                      0x000050cc   Data           0  dynamic_file.o(.debug_pubnames)
    C$debug_info27                           0x00005b00   Data           0  dynamic_file.o(.debug_info)
    C$debug_info69                           0x00005d34   Data           0  dynamic_file.o(.debug_info)
    C$debug_info81                           0x00005fb8   Data           0  dynamic_file.o(.debug_info)
    C$debug_pubnames298                      0x00006154   Data           0  dynamic_sensor.o(.debug_pubnames)
    C$debug_pubnames310                      0x00006184   Data           0  dynamic_sensor.o(.debug_pubnames)
    C$debug_info117                          0x000061b4   Data           0  dynamic_file.o(.debug_info)
    C$debug_pubnames316                      0x000061b4   Data           0  dynamic_sensor.o(.debug_pubnames)
    C$debug_pubnames322                      0x000061e8   Data           0  dynamic_sensor.o(.debug_pubnames)
    C$debug_pubnames328                      0x0000621c   Data           0  dynamic_sensor.o(.debug_pubnames)
    C$debug_pubnames334                      0x0000624c   Data           0  dynamic_sensor.o(.debug_pubnames)
    C$debug_pubnames340                      0x00006284   Data           0  dynamic_sensor.o(.debug_pubnames)
    C$debug_pubnames346                      0x000062b0   Data           0  dynamic_sensor.o(.debug_pubnames)
    C$debug_pubnames4                        0x000062dc   Data           0  dynamic_sensor.o(.debug_pubnames)
    C$debug_info177                          0x00006334   Data           0  dynamic_file.o(.debug_info)
    C$debug_pubnames304                      0x0000637c   Data           0  dynamic_sensor.o(.debug_pubnames)
    C$debug_info201                          0x00006eec   Data           0  dynamic_file.o(.debug_info)
    C$debug_info213                          0x0000716c   Data           0  dynamic_file.o(.debug_info)
    C$debug_info225                          0x000072a8   Data           0  dynamic_file.o(.debug_info)
    C$debug_info297                          0x0000d3d0   Data           0  dynamic_sensor.o(.debug_info)
    C$debug_info309                          0x0000d4bc   Data           0  dynamic_sensor.o(.debug_info)
    C$debug_info315                          0x0000d580   Data           0  dynamic_sensor.o(.debug_info)
    C$debug_info321                          0x0000d624   Data           0  dynamic_sensor.o(.debug_info)
    C$debug_info327                          0x0000d6dc   Data           0  dynamic_sensor.o(.debug_info)
    C$debug_info333                          0x0000d77c   Data           0  dynamic_sensor.o(.debug_info)
    C$debug_info339                          0x0000d824   Data           0  dynamic_sensor.o(.debug_info)
    C$debug_info345                          0x0000d8d8   Data           0  dynamic_sensor.o(.debug_info)
    C$debug_info3                            0x0000d98c   Data           0  dynamic_sensor.o(.debug_info)
    C$debug_info303                          0x0000db14   Data           0  dynamic_sensor.o(.debug_info)
    .data$0                                  0x00399dc0   Data           0  dynamic_sensor.o(.data)
    accelecation_buf@dynamic_sensor_task_0   0x00399dc4   Data           4  dynamic_sensor.o(.data)
    .bss$2                                   0x0039afd8   Data           0  dynamic_sensor.o(.bss)
    s_vib_state_3min                         0x0039afd8   Data           1  dynamic_sensor.o(.bss)
    s_check_cnt                              0x0039afda   Data           2  dynamic_sensor.o(.bss)
    err_cnt@dynamic_sensor_task_1            0x0039afdc   Data           2  dynamic_sensor.o(.bss)
    x_buf@dynamic_sensor_task_2              0x0039afde   Data           2  dynamic_sensor.o(.bss)
    y_buf@dynamic_sensor_task_3              0x0039afe0   Data           2  dynamic_sensor.o(.bss)
    z_buf@dynamic_sensor_task_4              0x0039afe2   Data           2  dynamic_sensor.o(.bss)
    log_cnt@dynamic_sensor_task_5            0x0039afe4   Data           2  dynamic_sensor.o(.bss)
    s_accelecation_dis                       0x0039afec   Data          80  dynamic_sensor.o(.bss)
    s_sensor_buffer                          0x0039b03c   Data          10  dynamic_sensor.o(.bss)
    D:\software\QQfile_recv\T808_Protocol\dynamic_app\dynamic\dynamic_upgrade.c 0x00000000   Number         0  dynamic_upgrade.o ABSOLUTE
    C$debug_macinfo29                        0x00000000   Data           0  dynamic_file.o(.debug_macinfo)
    C$debug_abbrev0                          0x00000010   Data           0  dynamic_file.o(.debug_abbrev)
    C$debug_info39                           0x00000090   Data           0  dynamic_file.o(.debug_info)
    C$debug_pubnames28                       0x000000d4   Data           0  dynamic_file.o(.debug_pubnames)
    C$debug_line26                           0x00000154   Data           0  dynamic_file.o(.debug_line)
    C$debug_macinfo41                        0x0000015c   Data           0  dynamic_file.o(.debug_macinfo)
    C$debug_line38                           0x000001a4   Data           0  dynamic_file.o(.debug_line)
    C$debug_pubnames40                       0x000001b4   Data           0  dynamic_file.o(.debug_pubnames)
    C$debug_line68                           0x00000210   Data           0  dynamic_file.o(.debug_line)
    C$debug_line80                           0x00000290   Data           0  dynamic_file.o(.debug_line)
    C$debug_line116                          0x00000310   Data           0  dynamic_file.o(.debug_line)
    C$debug_line176                          0x0000038c   Data           0  dynamic_file.o(.debug_line)
    C$debug_line200                          0x0000043c   Data           0  dynamic_file.o(.debug_line)
    C$debug_line212                          0x000004ec   Data           0  dynamic_file.o(.debug_line)
    C$debug_line224                          0x0000059c   Data           0  dynamic_file.o(.debug_line)
    C$debug_macinfo71                        0x0000094c   Data           0  dynamic_file.o(.debug_macinfo)
    C$debug_macinfo83                        0x00000984   Data           0  dynamic_file.o(.debug_macinfo)
    C$debug_macinfo119                       0x00000a1c   Data           0  dynamic_file.o(.debug_macinfo)
    C$debug_macinfo179                       0x00000a64   Data           0  dynamic_file.o(.debug_macinfo)
    C$debug_macinfo203                       0x00000d04   Data           0  dynamic_file.o(.debug_macinfo)
    C$debug_macinfo215                       0x00000d1c   Data           0  dynamic_file.o(.debug_macinfo)
    C$debug_macinfo227                       0x00000d84   Data           0  dynamic_file.o(.debug_macinfo)
    C$debug_pubnames70                       0x00004a64   Data           0  dynamic_file.o(.debug_pubnames)
    C$debug_pubnames82                       0x00004bbc   Data           0  dynamic_file.o(.debug_pubnames)
    C$debug_pubnames118                      0x00004c74   Data           0  dynamic_file.o(.debug_pubnames)
    C$debug_pubnames178                      0x00004cd4   Data           0  dynamic_file.o(.debug_pubnames)
    C$debug_pubnames202                      0x00004e44   Data           0  dynamic_file.o(.debug_pubnames)
    C$debug_pubnames214                      0x0000505c   Data           0  dynamic_file.o(.debug_pubnames)
    C$debug_pubnames226                      0x000050cc   Data           0  dynamic_file.o(.debug_pubnames)
    C$debug_info27                           0x00005b00   Data           0  dynamic_file.o(.debug_info)
    C$debug_info69                           0x00005d34   Data           0  dynamic_file.o(.debug_info)
    C$debug_info81                           0x00005fb8   Data           0  dynamic_file.o(.debug_info)
    C$debug_info117                          0x000061b4   Data           0  dynamic_file.o(.debug_info)
    C$debug_info177                          0x00006334   Data           0  dynamic_file.o(.debug_info)
    C$debug_info201                          0x00006eec   Data           0  dynamic_file.o(.debug_info)
    C$debug_info213                          0x0000716c   Data           0  dynamic_file.o(.debug_info)
    C$debug_info225                          0x000072a8   Data           0  dynamic_file.o(.debug_info)
    D:\software\QQfile_recv\T808_Protocol\dynamic_app\dynamic\dynamic_common.c 0x00000000   Number         0  dynamic_common.o ABSOLUTE
    .text                                    0x0038a514   ARM Code       0  dynamic_common.o(.text)
    C$debug_macinfo29                        0x00000000   Data           0  dynamic_file.o(.debug_macinfo)
    C$debug_abbrev0                          0x00000010   Data           0  dynamic_file.o(.debug_abbrev)
    C$debug_info39                           0x00000090   Data           0  dynamic_file.o(.debug_info)
    C$debug_pubnames28                       0x000000d4   Data           0  dynamic_file.o(.debug_pubnames)
    C$debug_line26                           0x00000154   Data           0  dynamic_file.o(.debug_line)
    C$debug_macinfo41                        0x0000015c   Data           0  dynamic_file.o(.debug_macinfo)
    C$debug_line38                           0x000001a4   Data           0  dynamic_file.o(.debug_line)
    C$debug_pubnames40                       0x000001b4   Data           0  dynamic_file.o(.debug_pubnames)
    C$debug_line68                           0x00000210   Data           0  dynamic_file.o(.debug_line)
    C$debug_line80                           0x00000290   Data           0  dynamic_file.o(.debug_line)
    C$debug_line116                          0x00000310   Data           0  dynamic_file.o(.debug_line)
    C$debug_line176                          0x0000038c   Data           0  dynamic_file.o(.debug_line)
    C$debug_line200                          0x0000043c   Data           0  dynamic_file.o(.debug_line)
    C$debug_line212                          0x000004ec   Data           0  dynamic_file.o(.debug_line)
    C$debug_line224                          0x0000059c   Data           0  dynamic_file.o(.debug_line)
    C$debug_macinfo71                        0x0000094c   Data           0  dynamic_file.o(.debug_macinfo)
    C$debug_macinfo83                        0x00000984   Data           0  dynamic_file.o(.debug_macinfo)
    C$debug_macinfo119                       0x00000a1c   Data           0  dynamic_file.o(.debug_macinfo)
    C$debug_macinfo179                       0x00000a64   Data           0  dynamic_file.o(.debug_macinfo)
    C$debug_frame325                         0x00000b38   Data           0  dynamic_common.o(.debug_frame)
    C$debug_macinfo203                       0x00000d04   Data           0  dynamic_file.o(.debug_macinfo)
    C$debug_macinfo215                       0x00000d1c   Data           0  dynamic_file.o(.debug_macinfo)
    C$debug_macinfo227                       0x00000d84   Data           0  dynamic_file.o(.debug_macinfo)
    C$debug_line2                            0x00001a1c   Data           0  dynamic_common.o(.debug_line)
    C$debug_line320                          0x00001b24   Data           0  dynamic_common.o(.debug_line)
    C$debug_macinfo5                         0x00001b68   Data           0  dynamic_common.o(.debug_macinfo)
    C$debug_loc324                           0x000030c0   Data           0  dynamic_common.o(.debug_loc)
    C$debug_pubnames70                       0x00004a64   Data           0  dynamic_file.o(.debug_pubnames)
    C$debug_pubnames82                       0x00004bbc   Data           0  dynamic_file.o(.debug_pubnames)
    C$debug_pubnames118                      0x00004c74   Data           0  dynamic_file.o(.debug_pubnames)
    C$debug_pubnames178                      0x00004cd4   Data           0  dynamic_file.o(.debug_pubnames)
    C$debug_pubnames202                      0x00004e44   Data           0  dynamic_file.o(.debug_pubnames)
    C$debug_pubnames214                      0x0000505c   Data           0  dynamic_file.o(.debug_pubnames)
    C$debug_pubnames226                      0x000050cc   Data           0  dynamic_file.o(.debug_pubnames)
    C$debug_info27                           0x00005b00   Data           0  dynamic_file.o(.debug_info)
    C$debug_info69                           0x00005d34   Data           0  dynamic_file.o(.debug_info)
    C$debug_info81                           0x00005fb8   Data           0  dynamic_file.o(.debug_info)
    C$debug_info117                          0x000061b4   Data           0  dynamic_file.o(.debug_info)
    C$debug_info177                          0x00006334   Data           0  dynamic_file.o(.debug_info)
    C$debug_pubnames316                      0x000064e0   Data           0  dynamic_common.o(.debug_pubnames)
    C$debug_pubnames328                      0x0000650c   Data           0  dynamic_common.o(.debug_pubnames)
    C$debug_pubnames334                      0x00006540   Data           0  dynamic_common.o(.debug_pubnames)
    C$debug_pubnames340                      0x00006574   Data           0  dynamic_common.o(.debug_pubnames)
    C$debug_pubnames346                      0x000065ac   Data           0  dynamic_common.o(.debug_pubnames)
    C$debug_pubnames352                      0x000065d8   Data           0  dynamic_common.o(.debug_pubnames)
    C$debug_pubnames358                      0x00006604   Data           0  dynamic_common.o(.debug_pubnames)
    C$debug_pubnames322                      0x00006630   Data           0  dynamic_common.o(.debug_pubnames)
    C$debug_info201                          0x00006eec   Data           0  dynamic_file.o(.debug_info)
    C$debug_info213                          0x0000716c   Data           0  dynamic_file.o(.debug_info)
    C$debug_info225                          0x000072a8   Data           0  dynamic_file.o(.debug_info)
    C$debug_info3                            0x0000e258   Data           0  dynamic_common.o(.debug_info)
    C$debug_info315                          0x0000e2f0   Data           0  dynamic_common.o(.debug_info)
    C$debug_info327                          0x0000e3e0   Data           0  dynamic_common.o(.debug_info)
    C$debug_info333                          0x0000e4c0   Data           0  dynamic_common.o(.debug_info)
    C$debug_info339                          0x0000e59c   Data           0  dynamic_common.o(.debug_info)
    C$debug_info345                          0x0000e670   Data           0  dynamic_common.o(.debug_info)
    C$debug_info351                          0x0000e748   Data           0  dynamic_common.o(.debug_info)
    C$debug_info357                          0x0000e83c   Data           0  dynamic_common.o(.debug_info)
    C$debug_info321                          0x0000e900   Data           0  dynamic_common.o(.debug_info)
    D:\software\QQfile_recv\T808_Protocol\dynamic_app\track\xy_alm.c 0x00000000   Number         0  xy_alm.o ABSOLUTE
    .bss                                     0x0039b048   Data           0  xy_alm.o(.bss)
    .text                                    0x0038a62c   ARM Code       0  xy_alm.o(.text)
    C$debug_macinfo29                        0x00000000   Data           0  dynamic_file.o(.debug_macinfo)
    C$debug_abbrev0                          0x00000010   Data           0  dynamic_file.o(.debug_abbrev)
    C$debug_info39                           0x00000090   Data           0  dynamic_file.o(.debug_info)
    C$debug_pubnames28                       0x000000d4   Data           0  dynamic_file.o(.debug_pubnames)
    C$debug_line26                           0x00000154   Data           0  dynamic_file.o(.debug_line)
    C$debug_macinfo41                        0x0000015c   Data           0  dynamic_file.o(.debug_macinfo)
    C$debug_line38                           0x000001a4   Data           0  dynamic_file.o(.debug_line)
    C$debug_pubnames40                       0x000001b4   Data           0  dynamic_file.o(.debug_pubnames)
    C$debug_line68                           0x00000210   Data           0  dynamic_file.o(.debug_line)
    C$debug_line80                           0x00000290   Data           0  dynamic_file.o(.debug_line)
    C$debug_line116                          0x00000310   Data           0  dynamic_file.o(.debug_line)
    C$debug_line176                          0x0000038c   Data           0  dynamic_file.o(.debug_line)
    C$debug_line200                          0x0000043c   Data           0  dynamic_file.o(.debug_line)
    C$debug_line212                          0x000004ec   Data           0  dynamic_file.o(.debug_line)
    C$debug_line224                          0x0000059c   Data           0  dynamic_file.o(.debug_line)
    C$debug_macinfo71                        0x0000094c   Data           0  dynamic_file.o(.debug_macinfo)
    C$debug_macinfo83                        0x00000984   Data           0  dynamic_file.o(.debug_macinfo)
    C$debug_macinfo119                       0x00000a1c   Data           0  dynamic_file.o(.debug_macinfo)
    C$debug_macinfo179                       0x00000a64   Data           0  dynamic_file.o(.debug_macinfo)
    C$debug_frame301                         0x00000bf0   Data           0  xy_alm.o(.debug_frame)
    C$debug_macinfo203                       0x00000d04   Data           0  dynamic_file.o(.debug_macinfo)
    C$debug_macinfo215                       0x00000d1c   Data           0  dynamic_file.o(.debug_macinfo)
    C$debug_macinfo227                       0x00000d84   Data           0  dynamic_file.o(.debug_macinfo)
    C$debug_line2                            0x00001c24   Data           0  xy_alm.o(.debug_line)
    C$debug_line296                          0x00001cd8   Data           0  xy_alm.o(.debug_line)
    C$debug_macinfo5                         0x00001d34   Data           0  xy_alm.o(.debug_macinfo)
    C$debug_loc300                           0x000033b0   Data           0  xy_alm.o(.debug_loc)
    C$debug_pubnames70                       0x00004a64   Data           0  dynamic_file.o(.debug_pubnames)
    C$debug_pubnames82                       0x00004bbc   Data           0  dynamic_file.o(.debug_pubnames)
    C$debug_pubnames118                      0x00004c74   Data           0  dynamic_file.o(.debug_pubnames)
    C$debug_pubnames178                      0x00004cd4   Data           0  dynamic_file.o(.debug_pubnames)
    C$debug_pubnames202                      0x00004e44   Data           0  dynamic_file.o(.debug_pubnames)
    C$debug_pubnames214                      0x0000505c   Data           0  dynamic_file.o(.debug_pubnames)
    C$debug_pubnames226                      0x000050cc   Data           0  dynamic_file.o(.debug_pubnames)
    C$debug_info27                           0x00005b00   Data           0  dynamic_file.o(.debug_info)
    C$debug_info69                           0x00005d34   Data           0  dynamic_file.o(.debug_info)
    C$debug_info81                           0x00005fb8   Data           0  dynamic_file.o(.debug_info)
    C$debug_info117                          0x000061b4   Data           0  dynamic_file.o(.debug_info)
    C$debug_info177                          0x00006334   Data           0  dynamic_file.o(.debug_info)
    C$debug_pubnames304                      0x0000670c   Data           0  xy_alm.o(.debug_pubnames)
    C$debug_pubnames310                      0x00006738   Data           0  xy_alm.o(.debug_pubnames)
    C$debug_pubnames316                      0x00006764   Data           0  xy_alm.o(.debug_pubnames)
    C$debug_pubnames322                      0x0000678c   Data           0  xy_alm.o(.debug_pubnames)
    C$debug_pubnames328                      0x000067b4   Data           0  xy_alm.o(.debug_pubnames)
    C$debug_pubnames334                      0x000067dc   Data           0  xy_alm.o(.debug_pubnames)
    C$debug_pubnames340                      0x00006804   Data           0  xy_alm.o(.debug_pubnames)
    C$debug_pubnames346                      0x00006828   Data           0  xy_alm.o(.debug_pubnames)
    C$debug_pubnames352                      0x00006850   Data           0  xy_alm.o(.debug_pubnames)
    C$debug_pubnames358                      0x00006874   Data           0  xy_alm.o(.debug_pubnames)
    C$debug_pubnames364                      0x0000689c   Data           0  xy_alm.o(.debug_pubnames)
    C$debug_pubnames370                      0x000068c0   Data           0  xy_alm.o(.debug_pubnames)
    C$debug_pubnames376                      0x000068e0   Data           0  xy_alm.o(.debug_pubnames)
    C$debug_pubnames4                        0x00006904   Data           0  xy_alm.o(.debug_pubnames)
    C$debug_pubnames298                      0x00006920   Data           0  xy_alm.o(.debug_pubnames)
    C$debug_info201                          0x00006eec   Data           0  dynamic_file.o(.debug_info)
    C$debug_info213                          0x0000716c   Data           0  dynamic_file.o(.debug_info)
    C$debug_info225                          0x000072a8   Data           0  dynamic_file.o(.debug_info)
    C$debug_info303                          0x0000eb7c   Data           0  xy_alm.o(.debug_info)
    C$debug_info309                          0x0000ec0c   Data           0  xy_alm.o(.debug_info)
    C$debug_info315                          0x0000eca0   Data           0  xy_alm.o(.debug_info)
    C$debug_info321                          0x0000ed30   Data           0  xy_alm.o(.debug_info)
    C$debug_info327                          0x0000edc0   Data           0  xy_alm.o(.debug_info)
    C$debug_info333                          0x0000ee4c   Data           0  xy_alm.o(.debug_info)
    C$debug_info339                          0x0000eed8   Data           0  xy_alm.o(.debug_info)
    C$debug_info345                          0x0000ef64   Data           0  xy_alm.o(.debug_info)
    C$debug_info351                          0x0000eff4   Data           0  xy_alm.o(.debug_info)
    C$debug_info357                          0x0000f0bc   Data           0  xy_alm.o(.debug_info)
    C$debug_info363                          0x0000f18c   Data           0  xy_alm.o(.debug_info)
    C$debug_info369                          0x0000f244   Data           0  xy_alm.o(.debug_info)
    C$debug_info375                          0x0000f2f0   Data           0  xy_alm.o(.debug_info)
    C$debug_info3                            0x0000f394   Data           0  xy_alm.o(.debug_info)
    C$debug_info297                          0x0000f42c   Data           0  xy_alm.o(.debug_info)
    |L1.548|                                 0x0038a850   Data           0  xy_alm.o(.text)
    .bss$2                                   0x0039b048   Data           0  xy_alm.o(.bss)
    accon@xy_acc_check_0                     0x0039b048   Data           1  xy_alm.o(.bss)
    accoff@xy_acc_check_1                    0x0039b049   Data           1  xy_alm.o(.bss)
    break_cnt@xy_alm_pow_check_0             0x0039b04a   Data           1  xy_alm.o(.bss)
    con_cnt@xy_alm_pow_check_1               0x0039b04b   Data           1  xy_alm.o(.bss)
    alm_cnt@xy_alm_move_check_0              0x0039b04c   Data           1  xy_alm.o(.bss)
    noalm_cnt@xy_alm_move_check_1            0x0039b04d   Data           1  xy_alm.o(.bss)
    alm_cnt@xy_alm_speed_check_0             0x0039b04e   Data           1  xy_alm.o(.bss)
    noalm_cnt@xy_alm_speed_check_1           0x0039b04f   Data           1  xy_alm.o(.bss)
    delay_time@xy_alm_anti_thrief_check_0    0x0039b050   Data           2  xy_alm.o(.bss)
    s_vin                                    0x0039b054   Data           4  xy_alm.o(.bss)
    adc_sum@xy_alm_pow_check_2               0x0039b058   Data           4  xy_alm.o(.bss)
    adc_cnt@xy_alm_pow_check_3               0x0039b05c   Data           4  xy_alm.o(.bss)
    v_buf@xy_alm_low_bat_0                   0x0039b060   Data           4  xy_alm.o(.bss)
    adc_cnt@xy_alm_low_bat_2                 0x0039b064   Data           4  xy_alm.o(.bss)
    adc_value@xy_alm_low_bat_1               0x0039b068   Data          32  xy_alm.o(.bss)
    D:\software\QQfile_recv\T808_Protocol\dynamic_app\track\xy_led.c 0x00000000   Number         0  xy_led.o ABSOLUTE
    .text                                    0x0038b298   ARM Code       0  xy_led.o(.text)
    .data                                    0x00399dd0   Data           0  xy_led.o(.data)
    C$debug_macinfo29                        0x00000000   Data           0  dynamic_file.o(.debug_macinfo)
    C$debug_abbrev0                          0x00000010   Data           0  dynamic_file.o(.debug_abbrev)
    C$debug_info39                           0x00000090   Data           0  dynamic_file.o(.debug_info)
    C$debug_pubnames28                       0x000000d4   Data           0  dynamic_file.o(.debug_pubnames)
    C$debug_line26                           0x00000154   Data           0  dynamic_file.o(.debug_line)
    C$debug_macinfo41                        0x0000015c   Data           0  dynamic_file.o(.debug_macinfo)
    C$debug_line38                           0x000001a4   Data           0  dynamic_file.o(.debug_line)
    C$debug_pubnames40                       0x000001b4   Data           0  dynamic_file.o(.debug_pubnames)
    C$debug_line68                           0x00000210   Data           0  dynamic_file.o(.debug_line)
    C$debug_line80                           0x00000290   Data           0  dynamic_file.o(.debug_line)
    C$debug_line116                          0x00000310   Data           0  dynamic_file.o(.debug_line)
    C$debug_line176                          0x0000038c   Data           0  dynamic_file.o(.debug_line)
    C$debug_line200                          0x0000043c   Data           0  dynamic_file.o(.debug_line)
    C$debug_line212                          0x000004ec   Data           0  dynamic_file.o(.debug_line)
    C$debug_line224                          0x0000059c   Data           0  dynamic_file.o(.debug_line)
    C$debug_macinfo71                        0x0000094c   Data           0  dynamic_file.o(.debug_macinfo)
    C$debug_macinfo83                        0x00000984   Data           0  dynamic_file.o(.debug_macinfo)
    C$debug_macinfo119                       0x00000a1c   Data           0  dynamic_file.o(.debug_macinfo)
    C$debug_macinfo179                       0x00000a64   Data           0  dynamic_file.o(.debug_macinfo)
    C$debug_macinfo203                       0x00000d04   Data           0  dynamic_file.o(.debug_macinfo)
    C$debug_macinfo215                       0x00000d1c   Data           0  dynamic_file.o(.debug_macinfo)
    C$debug_macinfo227                       0x00000d84   Data           0  dynamic_file.o(.debug_macinfo)
    C$debug_frame301                         0x00000f18   Data           0  xy_led.o(.debug_frame)
    C$debug_line296                          0x00002084   Data           0  xy_led.o(.debug_line)
    C$debug_loc300                           0x00003c38   Data           0  xy_led.o(.debug_loc)
    C$debug_pubnames70                       0x00004a64   Data           0  dynamic_file.o(.debug_pubnames)
    C$debug_pubnames82                       0x00004bbc   Data           0  dynamic_file.o(.debug_pubnames)
    C$debug_pubnames118                      0x00004c74   Data           0  dynamic_file.o(.debug_pubnames)
    C$debug_pubnames178                      0x00004cd4   Data           0  dynamic_file.o(.debug_pubnames)
    C$debug_pubnames202                      0x00004e44   Data           0  dynamic_file.o(.debug_pubnames)
    C$debug_pubnames214                      0x0000505c   Data           0  dynamic_file.o(.debug_pubnames)
    C$debug_pubnames226                      0x000050cc   Data           0  dynamic_file.o(.debug_pubnames)
    C$debug_info27                           0x00005b00   Data           0  dynamic_file.o(.debug_info)
    C$debug_info69                           0x00005d34   Data           0  dynamic_file.o(.debug_info)
    C$debug_info81                           0x00005fb8   Data           0  dynamic_file.o(.debug_info)
    C$debug_info117                          0x000061b4   Data           0  dynamic_file.o(.debug_info)
    C$debug_info177                          0x00006334   Data           0  dynamic_file.o(.debug_info)
    C$debug_pubnames304                      0x00006b0c   Data           0  xy_led.o(.debug_pubnames)
    C$debug_pubnames298                      0x00006b30   Data           0  xy_led.o(.debug_pubnames)
    C$debug_info201                          0x00006eec   Data           0  dynamic_file.o(.debug_info)
    C$debug_info213                          0x0000716c   Data           0  dynamic_file.o(.debug_info)
    C$debug_info225                          0x000072a8   Data           0  dynamic_file.o(.debug_info)
    C$debug_info303                          0x000106bc   Data           0  xy_led.o(.debug_info)
    C$debug_info297                          0x0001075c   Data           0  xy_led.o(.debug_info)
    .data$0                                  0x00399dd0   Data           0  xy_led.o(.data)
    gms_led_cnt@xy_led_task_0                0x00399dd0   Data           1  xy_led.o(.data)
    gps_led_cnt@xy_led_task_1                0x00399dd1   Data           1  xy_led.o(.data)
    D:\software\QQfile_recv\T808_Protocol\dynamic_app\track\xy_main.c 0x00000000   Number         0  xy_main.o ABSOLUTE
    .bss                                     0x0039b088   Data           0  xy_main.o(.bss)
    .text                                    0x0038b42c   ARM Code       0  xy_main.o(.text)
    C$debug_macinfo29                        0x00000000   Data           0  dynamic_file.o(.debug_macinfo)
    C$debug_abbrev0                          0x00000010   Data           0  dynamic_file.o(.debug_abbrev)
    C$debug_info39                           0x00000090   Data           0  dynamic_file.o(.debug_info)
    C$debug_pubnames28                       0x000000d4   Data           0  dynamic_file.o(.debug_pubnames)
    C$debug_line26                           0x00000154   Data           0  dynamic_file.o(.debug_line)
    C$debug_macinfo41                        0x0000015c   Data           0  dynamic_file.o(.debug_macinfo)
    C$debug_line38                           0x000001a4   Data           0  dynamic_file.o(.debug_line)
    C$debug_pubnames40                       0x000001b4   Data           0  dynamic_file.o(.debug_pubnames)
    C$debug_line68                           0x00000210   Data           0  dynamic_file.o(.debug_line)
    C$debug_line80                           0x00000290   Data           0  dynamic_file.o(.debug_line)
    C$debug_line116                          0x00000310   Data           0  dynamic_file.o(.debug_line)
    C$debug_line176                          0x0000038c   Data           0  dynamic_file.o(.debug_line)
    C$debug_line200                          0x0000043c   Data           0  dynamic_file.o(.debug_line)
    C$debug_line212                          0x000004ec   Data           0  dynamic_file.o(.debug_line)
    C$debug_line224                          0x0000059c   Data           0  dynamic_file.o(.debug_line)
    C$debug_macinfo71                        0x0000094c   Data           0  dynamic_file.o(.debug_macinfo)
    C$debug_macinfo83                        0x00000984   Data           0  dynamic_file.o(.debug_macinfo)
    C$debug_macinfo119                       0x00000a1c   Data           0  dynamic_file.o(.debug_macinfo)
    C$debug_macinfo179                       0x00000a64   Data           0  dynamic_file.o(.debug_macinfo)
    C$debug_macinfo203                       0x00000d04   Data           0  dynamic_file.o(.debug_macinfo)
    C$debug_macinfo215                       0x00000d1c   Data           0  dynamic_file.o(.debug_macinfo)
    C$debug_macinfo227                       0x00000d84   Data           0  dynamic_file.o(.debug_macinfo)
    C$debug_frame307                         0x00000f94   Data           0  xy_main.o(.debug_frame)
    C$debug_macinfo5                         0x00001f70   Data           0  xy_main.o(.debug_macinfo)
    C$debug_line2                            0x00002184   Data           0  xy_main.o(.debug_line)
    C$debug_line302                          0x0000223c   Data           0  xy_main.o(.debug_line)
    C$debug_loc306                           0x00003d48   Data           0  xy_main.o(.debug_loc)
    C$debug_pubnames70                       0x00004a64   Data           0  dynamic_file.o(.debug_pubnames)
    C$debug_pubnames82                       0x00004bbc   Data           0  dynamic_file.o(.debug_pubnames)
    C$debug_pubnames118                      0x00004c74   Data           0  dynamic_file.o(.debug_pubnames)
    C$debug_pubnames178                      0x00004cd4   Data           0  dynamic_file.o(.debug_pubnames)
    C$debug_pubnames202                      0x00004e44   Data           0  dynamic_file.o(.debug_pubnames)
    C$debug_pubnames214                      0x0000505c   Data           0  dynamic_file.o(.debug_pubnames)
    C$debug_pubnames226                      0x000050cc   Data           0  dynamic_file.o(.debug_pubnames)
    C$debug_info27                           0x00005b00   Data           0  dynamic_file.o(.debug_info)
    C$debug_info69                           0x00005d34   Data           0  dynamic_file.o(.debug_info)
    C$debug_info81                           0x00005fb8   Data           0  dynamic_file.o(.debug_info)
    C$debug_info117                          0x000061b4   Data           0  dynamic_file.o(.debug_info)
    C$debug_info177                          0x00006334   Data           0  dynamic_file.o(.debug_info)
    C$debug_pubnames298                      0x00006b64   Data           0  xy_main.o(.debug_pubnames)
    C$debug_pubnames310                      0x00006b94   Data           0  xy_main.o(.debug_pubnames)
    C$debug_pubnames316                      0x00006bb8   Data           0  xy_main.o(.debug_pubnames)
    C$debug_pubnames4                        0x00006be4   Data           0  xy_main.o(.debug_pubnames)
    C$debug_pubnames304                      0x00006c04   Data           0  xy_main.o(.debug_pubnames)
    C$debug_info201                          0x00006eec   Data           0  dynamic_file.o(.debug_info)
    C$debug_info213                          0x0000716c   Data           0  dynamic_file.o(.debug_info)
    C$debug_info225                          0x000072a8   Data           0  dynamic_file.o(.debug_info)
    C$debug_info297                          0x000109fc   Data           0  xy_main.o(.debug_info)
    C$debug_info3                            0x00010b24   Data           0  xy_main.o(.debug_info)
    C$debug_info309                          0x00010bc4   Data           0  xy_main.o(.debug_info)
    C$debug_info315                          0x00010c64   Data           0  xy_main.o(.debug_info)
    C$debug_info303                          0x00010d4c   Data           0  xy_main.o(.debug_info)
    |L1.208|                                 0x0038b4fc   Data           0  xy_main.o(.text)
    .bss$2                                   0x0039b088   Data           0  xy_main.o(.bss)
    xy_info                                  0x0039b088   Data         976  xy_main.o(.bss)
    D:\software\QQfile_recv\T808_Protocol\dynamic_app\track\xy_mileage.c 0x00000000   Number         0  xy_mileage.o ABSOLUTE
    C$debug_macinfo29                        0x00000000   Data           0  dynamic_file.o(.debug_macinfo)
    C$debug_abbrev0                          0x00000010   Data           0  dynamic_file.o(.debug_abbrev)
    C$debug_info39                           0x00000090   Data           0  dynamic_file.o(.debug_info)
    C$debug_pubnames28                       0x000000d4   Data           0  dynamic_file.o(.debug_pubnames)
    C$debug_line26                           0x00000154   Data           0  dynamic_file.o(.debug_line)
    C$debug_macinfo41                        0x0000015c   Data           0  dynamic_file.o(.debug_macinfo)
    C$debug_line38                           0x000001a4   Data           0  dynamic_file.o(.debug_line)
    C$debug_pubnames40                       0x000001b4   Data           0  dynamic_file.o(.debug_pubnames)
    C$debug_line68                           0x00000210   Data           0  dynamic_file.o(.debug_line)
    C$debug_line80                           0x00000290   Data           0  dynamic_file.o(.debug_line)
    C$debug_line116                          0x00000310   Data           0  dynamic_file.o(.debug_line)
    C$debug_line176                          0x0000038c   Data           0  dynamic_file.o(.debug_line)
    C$debug_line200                          0x0000043c   Data           0  dynamic_file.o(.debug_line)
    C$debug_line212                          0x000004ec   Data           0  dynamic_file.o(.debug_line)
    C$debug_line224                          0x0000059c   Data           0  dynamic_file.o(.debug_line)
    C$debug_macinfo71                        0x0000094c   Data           0  dynamic_file.o(.debug_macinfo)
    C$debug_macinfo83                        0x00000984   Data           0  dynamic_file.o(.debug_macinfo)
    C$debug_macinfo119                       0x00000a1c   Data           0  dynamic_file.o(.debug_macinfo)
    C$debug_macinfo179                       0x00000a64   Data           0  dynamic_file.o(.debug_macinfo)
    C$debug_macinfo203                       0x00000d04   Data           0  dynamic_file.o(.debug_macinfo)
    C$debug_macinfo215                       0x00000d1c   Data           0  dynamic_file.o(.debug_macinfo)
    C$debug_macinfo227                       0x00000d84   Data           0  dynamic_file.o(.debug_macinfo)
    C$debug_pubnames70                       0x00004a64   Data           0  dynamic_file.o(.debug_pubnames)
    C$debug_pubnames82                       0x00004bbc   Data           0  dynamic_file.o(.debug_pubnames)
    C$debug_pubnames118                      0x00004c74   Data           0  dynamic_file.o(.debug_pubnames)
    C$debug_pubnames178                      0x00004cd4   Data           0  dynamic_file.o(.debug_pubnames)
    C$debug_pubnames202                      0x00004e44   Data           0  dynamic_file.o(.debug_pubnames)
    C$debug_pubnames214                      0x0000505c   Data           0  dynamic_file.o(.debug_pubnames)
    C$debug_pubnames226                      0x000050cc   Data           0  dynamic_file.o(.debug_pubnames)
    C$debug_info27                           0x00005b00   Data           0  dynamic_file.o(.debug_info)
    C$debug_info69                           0x00005d34   Data           0  dynamic_file.o(.debug_info)
    C$debug_info81                           0x00005fb8   Data           0  dynamic_file.o(.debug_info)
    C$debug_info117                          0x000061b4   Data           0  dynamic_file.o(.debug_info)
    C$debug_info177                          0x00006334   Data           0  dynamic_file.o(.debug_info)
    C$debug_info201                          0x00006eec   Data           0  dynamic_file.o(.debug_info)
    C$debug_info213                          0x0000716c   Data           0  dynamic_file.o(.debug_info)
    C$debug_info225                          0x000072a8   Data           0  dynamic_file.o(.debug_info)
    D:\software\QQfile_recv\T808_Protocol\dynamic_app\track\xy_sms.c 0x00000000   Number         0  xy_sms.o ABSOLUTE
    .constdata                               0x00399660   Data           0  xy_sms.o(.constdata)
    .text                                    0x0038bb44   ARM Code       0  xy_sms.o(.text)
    C$debug_macinfo29                        0x00000000   Data           0  dynamic_file.o(.debug_macinfo)
    C$debug_abbrev0                          0x00000010   Data           0  dynamic_file.o(.debug_abbrev)
    C$debug_info39                           0x00000090   Data           0  dynamic_file.o(.debug_info)
    C$debug_pubnames28                       0x000000d4   Data           0  dynamic_file.o(.debug_pubnames)
    C$debug_line26                           0x00000154   Data           0  dynamic_file.o(.debug_line)
    C$debug_macinfo41                        0x0000015c   Data           0  dynamic_file.o(.debug_macinfo)
    C$debug_line38                           0x000001a4   Data           0  dynamic_file.o(.debug_line)
    C$debug_pubnames40                       0x000001b4   Data           0  dynamic_file.o(.debug_pubnames)
    C$debug_line68                           0x00000210   Data           0  dynamic_file.o(.debug_line)
    C$debug_line80                           0x00000290   Data           0  dynamic_file.o(.debug_line)
    C$debug_line116                          0x00000310   Data           0  dynamic_file.o(.debug_line)
    C$debug_line176                          0x0000038c   Data           0  dynamic_file.o(.debug_line)
    C$debug_line200                          0x0000043c   Data           0  dynamic_file.o(.debug_line)
    C$debug_line212                          0x000004ec   Data           0  dynamic_file.o(.debug_line)
    C$debug_line224                          0x0000059c   Data           0  dynamic_file.o(.debug_line)
    C$debug_macinfo71                        0x0000094c   Data           0  dynamic_file.o(.debug_macinfo)
    C$debug_macinfo83                        0x00000984   Data           0  dynamic_file.o(.debug_macinfo)
    C$debug_macinfo119                       0x00000a1c   Data           0  dynamic_file.o(.debug_macinfo)
    C$debug_macinfo179                       0x00000a64   Data           0  dynamic_file.o(.debug_macinfo)
    C$debug_macinfo203                       0x00000d04   Data           0  dynamic_file.o(.debug_macinfo)
    C$debug_macinfo215                       0x00000d1c   Data           0  dynamic_file.o(.debug_macinfo)
    C$debug_macinfo227                       0x00000d84   Data           0  dynamic_file.o(.debug_macinfo)
    C$debug_frame307                         0x000010e4   Data           0  xy_sms.o(.debug_frame)
    C$debug_macinfo5                         0x000021d4   Data           0  xy_sms.o(.debug_macinfo)
    C$debug_line2                            0x00002440   Data           0  xy_sms.o(.debug_line)
    C$debug_line302                          0x000024f4   Data           0  xy_sms.o(.debug_line)
    C$debug_loc306                           0x0000422c   Data           0  xy_sms.o(.debug_loc)
    C$debug_pubnames70                       0x00004a64   Data           0  dynamic_file.o(.debug_pubnames)
    C$debug_pubnames82                       0x00004bbc   Data           0  dynamic_file.o(.debug_pubnames)
    C$debug_pubnames118                      0x00004c74   Data           0  dynamic_file.o(.debug_pubnames)
    C$debug_pubnames178                      0x00004cd4   Data           0  dynamic_file.o(.debug_pubnames)
    C$debug_pubnames202                      0x00004e44   Data           0  dynamic_file.o(.debug_pubnames)
    C$debug_pubnames214                      0x0000505c   Data           0  dynamic_file.o(.debug_pubnames)
    C$debug_pubnames226                      0x000050cc   Data           0  dynamic_file.o(.debug_pubnames)
    C$debug_info27                           0x00005b00   Data           0  dynamic_file.o(.debug_info)
    C$debug_info69                           0x00005d34   Data           0  dynamic_file.o(.debug_info)
    C$debug_info81                           0x00005fb8   Data           0  dynamic_file.o(.debug_info)
    C$debug_info117                          0x000061b4   Data           0  dynamic_file.o(.debug_info)
    C$debug_info177                          0x00006334   Data           0  dynamic_file.o(.debug_info)
    C$debug_pubnames298                      0x00006cbc   Data           0  xy_sms.o(.debug_pubnames)
    C$debug_pubnames304                      0x00006ce4   Data           0  xy_sms.o(.debug_pubnames)
    C$debug_info201                          0x00006eec   Data           0  dynamic_file.o(.debug_info)
    C$debug_info213                          0x0000716c   Data           0  dynamic_file.o(.debug_info)
    C$debug_info225                          0x000072a8   Data           0  dynamic_file.o(.debug_info)
    C$debug_info297                          0x00011440   Data           0  xy_sms.o(.debug_info)
    C$debug_info3                            0x000115f0   Data           0  xy_sms.o(.debug_info)
    C$debug_info303                          0x0001167c   Data           0  xy_sms.o(.debug_info)
    .constdata$1                             0x00399660   Data           0  xy_sms.o(.constdata)
    D:\software\QQfile_recv\T808_Protocol\dynamic_app\track\xy_soc.c 0x00000000   Number         0  xy_soc.o ABSOLUTE
    .data                                    0x00399dd2   Data           0  xy_soc.o(.data)
    .text                                    0x0038c5b0   ARM Code       0  xy_soc.o(.text)
    .bss                                     0x0039b458   Data           0  xy_soc.o(.bss)
    .constdata                               0x003996a4   Data           0  xy_soc.o(.constdata)
    C$debug_macinfo29                        0x00000000   Data           0  dynamic_file.o(.debug_macinfo)
    C$debug_abbrev0                          0x00000010   Data           0  dynamic_file.o(.debug_abbrev)
    C$debug_info39                           0x00000090   Data           0  dynamic_file.o(.debug_info)
    C$debug_pubnames28                       0x000000d4   Data           0  dynamic_file.o(.debug_pubnames)
    C$debug_line26                           0x00000154   Data           0  dynamic_file.o(.debug_line)
    C$debug_macinfo41                        0x0000015c   Data           0  dynamic_file.o(.debug_macinfo)
    C$debug_line38                           0x000001a4   Data           0  dynamic_file.o(.debug_line)
    C$debug_pubnames40                       0x000001b4   Data           0  dynamic_file.o(.debug_pubnames)
    C$debug_line68                           0x00000210   Data           0  dynamic_file.o(.debug_line)
    C$debug_line80                           0x00000290   Data           0  dynamic_file.o(.debug_line)
    C$debug_line116                          0x00000310   Data           0  dynamic_file.o(.debug_line)
    C$debug_line176                          0x0000038c   Data           0  dynamic_file.o(.debug_line)
    C$debug_line200                          0x0000043c   Data           0  dynamic_file.o(.debug_line)
    C$debug_line212                          0x000004ec   Data           0  dynamic_file.o(.debug_line)
    C$debug_line224                          0x0000059c   Data           0  dynamic_file.o(.debug_line)
    C$debug_macinfo71                        0x0000094c   Data           0  dynamic_file.o(.debug_macinfo)
    C$debug_macinfo83                        0x00000984   Data           0  dynamic_file.o(.debug_macinfo)
    C$debug_macinfo119                       0x00000a1c   Data           0  dynamic_file.o(.debug_macinfo)
    C$debug_macinfo179                       0x00000a64   Data           0  dynamic_file.o(.debug_macinfo)
    C$debug_macinfo203                       0x00000d04   Data           0  dynamic_file.o(.debug_macinfo)
    C$debug_macinfo215                       0x00000d1c   Data           0  dynamic_file.o(.debug_macinfo)
    C$debug_macinfo227                       0x00000d84   Data           0  dynamic_file.o(.debug_macinfo)
    C$debug_frame307                         0x000011d0   Data           0  xy_soc.o(.debug_frame)
    C$debug_macinfo5                         0x000023ac   Data           0  xy_soc.o(.debug_macinfo)
    C$debug_line2                            0x000026f0   Data           0  xy_soc.o(.debug_line)
    C$debug_line302                          0x000027a4   Data           0  xy_soc.o(.debug_line)
    C$debug_loc306                           0x000049dc   Data           0  xy_soc.o(.debug_loc)
    C$debug_pubnames70                       0x00004a64   Data           0  dynamic_file.o(.debug_pubnames)
    C$debug_pubnames82                       0x00004bbc   Data           0  dynamic_file.o(.debug_pubnames)
    C$debug_pubnames118                      0x00004c74   Data           0  dynamic_file.o(.debug_pubnames)
    C$debug_pubnames178                      0x00004cd4   Data           0  dynamic_file.o(.debug_pubnames)
    C$debug_pubnames202                      0x00004e44   Data           0  dynamic_file.o(.debug_pubnames)
    C$debug_pubnames214                      0x0000505c   Data           0  dynamic_file.o(.debug_pubnames)
    C$debug_pubnames226                      0x000050cc   Data           0  dynamic_file.o(.debug_pubnames)
    C$debug_info27                           0x00005b00   Data           0  dynamic_file.o(.debug_info)
    C$debug_info69                           0x00005d34   Data           0  dynamic_file.o(.debug_info)
    C$debug_info81                           0x00005fb8   Data           0  dynamic_file.o(.debug_info)
    C$debug_info117                          0x000061b4   Data           0  dynamic_file.o(.debug_info)
    C$debug_info177                          0x00006334   Data           0  dynamic_file.o(.debug_info)
    C$debug_pubnames298                      0x00006d50   Data           0  xy_soc.o(.debug_pubnames)
    C$debug_pubnames310                      0x00006d80   Data           0  xy_soc.o(.debug_pubnames)
    C$debug_pubnames316                      0x00006db0   Data           0  xy_soc.o(.debug_pubnames)
    C$debug_pubnames322                      0x00006de0   Data           0  xy_soc.o(.debug_pubnames)
    C$debug_pubnames328                      0x00006e14   Data           0  xy_soc.o(.debug_pubnames)
    C$debug_pubnames334                      0x00006e44   Data           0  xy_soc.o(.debug_pubnames)
    C$debug_pubnames340                      0x00006e74   Data           0  xy_soc.o(.debug_pubnames)
    C$debug_pubnames346                      0x00006e9c   Data           0  xy_soc.o(.debug_pubnames)
    C$debug_pubnames352                      0x00006ec8   Data           0  xy_soc.o(.debug_pubnames)
    C$debug_info201                          0x00006eec   Data           0  dynamic_file.o(.debug_info)
    C$debug_pubnames358                      0x00006ef0   Data           0  xy_soc.o(.debug_pubnames)
    C$debug_pubnames364                      0x00006f18   Data           0  xy_soc.o(.debug_pubnames)
    C$debug_pubnames370                      0x00006f40   Data           0  xy_soc.o(.debug_pubnames)
    C$debug_pubnames376                      0x00006f68   Data           0  xy_soc.o(.debug_pubnames)
    C$debug_pubnames382                      0x00006f90   Data           0  xy_soc.o(.debug_pubnames)
    C$debug_pubnames388                      0x00006fb8   Data           0  xy_soc.o(.debug_pubnames)
    C$debug_pubnames4                        0x00006fdc   Data           0  xy_soc.o(.debug_pubnames)
    C$debug_pubnames304                      0x000070e0   Data           0  xy_soc.o(.debug_pubnames)
    C$debug_info213                          0x0000716c   Data           0  dynamic_file.o(.debug_info)
    C$debug_info225                          0x000072a8   Data           0  dynamic_file.o(.debug_info)
    C$debug_info297                          0x000123ec   Data           0  xy_soc.o(.debug_info)
    C$debug_info309                          0x0001248c   Data           0  xy_soc.o(.debug_info)
    C$debug_info315                          0x00012538   Data           0  xy_soc.o(.debug_info)
    C$debug_info321                          0x000125e4   Data           0  xy_soc.o(.debug_info)
    C$debug_info327                          0x00012694   Data           0  xy_soc.o(.debug_info)
    C$debug_info333                          0x00012740   Data           0  xy_soc.o(.debug_info)
    C$debug_info339                          0x00012804   Data           0  xy_soc.o(.debug_info)
    C$debug_info345                          0x000128a8   Data           0  xy_soc.o(.debug_info)
    C$debug_info351                          0x00012974   Data           0  xy_soc.o(.debug_info)
    C$debug_info3                            0x00012a5c   Data           0  xy_soc.o(.debug_info)
    C$debug_info357                          0x00012d28   Data           0  xy_soc.o(.debug_info)
    C$debug_info363                          0x00012e08   Data           0  xy_soc.o(.debug_info)
    C$debug_info369                          0x00012ecc   Data           0  xy_soc.o(.debug_info)
    C$debug_info375                          0x00012f5c   Data           0  xy_soc.o(.debug_info)
    C$debug_info381                          0x00013058   Data           0  xy_soc.o(.debug_info)
    C$debug_info387                          0x000131e8   Data           0  xy_soc.o(.debug_info)
    C$debug_info303                          0x000132cc   Data           0  xy_soc.o(.debug_info)
    .constdata$1                             0x003996a4   Data           0  xy_soc.o(.constdata)
    .data$0                                  0x00399dd2   Data           0  xy_soc.o(.data)
    s_rule                                   0x00399dd2   Data           4  xy_soc.o(.data)
    .bss$2                                   0x0039b458   Data           0  xy_soc.o(.bss)
    s_soc_nodata                             0x0039b458   Data           1  xy_soc.o(.bss)
    s_noask_cnt                              0x0039b459   Data           1  xy_soc.o(.bss)
    s_heart_no_ask                           0x0039b45a   Data           1  xy_soc.o(.bss)
    gsm_net_fail_cnt@xy_soc_task_0           0x0039b45b   Data           1  xy_soc.o(.bss)
    s_soc_cont                               0x0039b45c   Data           1  xy_soc.o(.bss)
    s_soc_queue                              0x0039b460   Data           4  xy_soc.o(.bss)
    s_xy_soc_info                            0x0039b464   Data           8  xy_soc.o(.bss)
    D:\software\QQfile_recv\T808_Protocol\dynamic_app\track\xy_telephony.c 0x00000000   Number         0  xy_telephony.o ABSOLUTE
    .text                                    0x0038dc24   ARM Code       0  xy_telephony.o(.text)
    .bss                                     0x0039ba24   Data           0  xy_telephony.o(.bss)
    C$debug_macinfo29                        0x00000000   Data           0  dynamic_file.o(.debug_macinfo)
    C$debug_abbrev0                          0x00000010   Data           0  dynamic_file.o(.debug_abbrev)
    C$debug_info39                           0x00000090   Data           0  dynamic_file.o(.debug_info)
    C$debug_pubnames28                       0x000000d4   Data           0  dynamic_file.o(.debug_pubnames)
    C$debug_line26                           0x00000154   Data           0  dynamic_file.o(.debug_line)
    C$debug_macinfo41                        0x0000015c   Data           0  dynamic_file.o(.debug_macinfo)
    C$debug_line38                           0x000001a4   Data           0  dynamic_file.o(.debug_line)
    C$debug_pubnames40                       0x000001b4   Data           0  dynamic_file.o(.debug_pubnames)
    C$debug_line68                           0x00000210   Data           0  dynamic_file.o(.debug_line)
    C$debug_line80                           0x00000290   Data           0  dynamic_file.o(.debug_line)
    C$debug_line116                          0x00000310   Data           0  dynamic_file.o(.debug_line)
    C$debug_line176                          0x0000038c   Data           0  dynamic_file.o(.debug_line)
    C$debug_line200                          0x0000043c   Data           0  dynamic_file.o(.debug_line)
    C$debug_line212                          0x000004ec   Data           0  dynamic_file.o(.debug_line)
    C$debug_line224                          0x0000059c   Data           0  dynamic_file.o(.debug_line)
    C$debug_macinfo71                        0x0000094c   Data           0  dynamic_file.o(.debug_macinfo)
    C$debug_macinfo83                        0x00000984   Data           0  dynamic_file.o(.debug_macinfo)
    C$debug_macinfo119                       0x00000a1c   Data           0  dynamic_file.o(.debug_macinfo)
    C$debug_macinfo179                       0x00000a64   Data           0  dynamic_file.o(.debug_macinfo)
    C$debug_macinfo203                       0x00000d04   Data           0  dynamic_file.o(.debug_macinfo)
    C$debug_macinfo215                       0x00000d1c   Data           0  dynamic_file.o(.debug_macinfo)
    C$debug_macinfo227                       0x00000d84   Data           0  dynamic_file.o(.debug_macinfo)
    C$debug_frame307                         0x000015fc   Data           0  xy_telephony.o(.debug_frame)
    C$debug_macinfo5                         0x000025a0   Data           0  xy_telephony.o(.debug_macinfo)
    C$debug_line2                            0x00002cec   Data           0  xy_telephony.o(.debug_line)
    C$debug_line302                          0x00002da8   Data           0  xy_telephony.o(.debug_line)
    C$debug_pubnames70                       0x00004a64   Data           0  dynamic_file.o(.debug_pubnames)
    C$debug_pubnames82                       0x00004bbc   Data           0  dynamic_file.o(.debug_pubnames)
    C$debug_pubnames118                      0x00004c74   Data           0  dynamic_file.o(.debug_pubnames)
    C$debug_pubnames178                      0x00004cd4   Data           0  dynamic_file.o(.debug_pubnames)
    C$debug_pubnames202                      0x00004e44   Data           0  dynamic_file.o(.debug_pubnames)
    C$debug_pubnames214                      0x0000505c   Data           0  dynamic_file.o(.debug_pubnames)
    C$debug_pubnames226                      0x000050cc   Data           0  dynamic_file.o(.debug_pubnames)
    C$debug_info27                           0x00005b00   Data           0  dynamic_file.o(.debug_info)
    C$debug_loc306                           0x00005b0c   Data           0  xy_telephony.o(.debug_loc)
    C$debug_info69                           0x00005d34   Data           0  dynamic_file.o(.debug_info)
    C$debug_info81                           0x00005fb8   Data           0  dynamic_file.o(.debug_info)
    C$debug_info117                          0x000061b4   Data           0  dynamic_file.o(.debug_info)
    C$debug_info177                          0x00006334   Data           0  dynamic_file.o(.debug_info)
    C$debug_info201                          0x00006eec   Data           0  dynamic_file.o(.debug_info)
    C$debug_info213                          0x0000716c   Data           0  dynamic_file.o(.debug_info)
    C$debug_info225                          0x000072a8   Data           0  dynamic_file.o(.debug_info)
    C$debug_pubnames298                      0x00007394   Data           0  xy_telephony.o(.debug_pubnames)
    C$debug_pubnames310                      0x000073c8   Data           0  xy_telephony.o(.debug_pubnames)
    C$debug_pubnames316                      0x000073f0   Data           0  xy_telephony.o(.debug_pubnames)
    C$debug_pubnames322                      0x00007414   Data           0  xy_telephony.o(.debug_pubnames)
    C$debug_pubnames328                      0x00007444   Data           0  xy_telephony.o(.debug_pubnames)
    C$debug_pubnames4                        0x00007470   Data           0  xy_telephony.o(.debug_pubnames)
    C$debug_pubnames304                      0x000074bc   Data           0  xy_telephony.o(.debug_pubnames)
    C$debug_info297                          0x00014a28   Data           0  xy_telephony.o(.debug_info)
    C$debug_info309                          0x00014ae0   Data           0  xy_telephony.o(.debug_info)
    C$debug_info315                          0x00014b94   Data           0  xy_telephony.o(.debug_info)
    C$debug_info321                          0x00014d1c   Data           0  xy_telephony.o(.debug_info)
    C$debug_info327                          0x00014db8   Data           0  xy_telephony.o(.debug_info)
    C$debug_info3                            0x00014f80   Data           0  xy_telephony.o(.debug_info)
    C$debug_info303                          0x0001505c   Data           0  xy_telephony.o(.debug_info)
    .bss$2                                   0x0039ba24   Data           0  xy_telephony.o(.bss)
    s_user_call                              0x0039ba24   Data           1  xy_telephony.o(.bss)
    s_sos_call_cnt                           0x0039ba25   Data           1  xy_telephony.o(.bss)
    s_sos_loop_call                          0x0039ba26   Data           1  xy_telephony.o(.bss)
    D:\software\QQfile_recv\T808_Protocol\dynamic_app\track\xy_track.c 0x00000000   Number         0  xy_track.o ABSOLUTE
    .text                                    0x0038dfd4   ARM Code       0  xy_track.o(.text)
    .bss                                     0x0039ba28   Data           0  xy_track.o(.bss)
    C$debug_macinfo29                        0x00000000   Data           0  dynamic_file.o(.debug_macinfo)
    C$debug_abbrev0                          0x00000010   Data           0  dynamic_file.o(.debug_abbrev)
    C$debug_info39                           0x00000090   Data           0  dynamic_file.o(.debug_info)
    C$debug_pubnames28                       0x000000d4   Data           0  dynamic_file.o(.debug_pubnames)
    C$debug_line26                           0x00000154   Data           0  dynamic_file.o(.debug_line)
    C$debug_macinfo41                        0x0000015c   Data           0  dynamic_file.o(.debug_macinfo)
    C$debug_line38                           0x000001a4   Data           0  dynamic_file.o(.debug_line)
    C$debug_pubnames40                       0x000001b4   Data           0  dynamic_file.o(.debug_pubnames)
    C$debug_line68                           0x00000210   Data           0  dynamic_file.o(.debug_line)
    C$debug_line80                           0x00000290   Data           0  dynamic_file.o(.debug_line)
    C$debug_line116                          0x00000310   Data           0  dynamic_file.o(.debug_line)
    C$debug_line176                          0x0000038c   Data           0  dynamic_file.o(.debug_line)
    C$debug_line200                          0x0000043c   Data           0  dynamic_file.o(.debug_line)
    C$debug_line212                          0x000004ec   Data           0  dynamic_file.o(.debug_line)
    C$debug_line224                          0x0000059c   Data           0  dynamic_file.o(.debug_line)
    C$debug_macinfo71                        0x0000094c   Data           0  dynamic_file.o(.debug_macinfo)
    C$debug_macinfo83                        0x00000984   Data           0  dynamic_file.o(.debug_macinfo)
    C$debug_macinfo119                       0x00000a1c   Data           0  dynamic_file.o(.debug_macinfo)
    C$debug_macinfo179                       0x00000a64   Data           0  dynamic_file.o(.debug_macinfo)
    C$debug_macinfo203                       0x00000d04   Data           0  dynamic_file.o(.debug_macinfo)
    C$debug_macinfo215                       0x00000d1c   Data           0  dynamic_file.o(.debug_macinfo)
    C$debug_macinfo227                       0x00000d84   Data           0  dynamic_file.o(.debug_macinfo)
    C$debug_frame301                         0x00001708   Data           0  xy_track.o(.debug_frame)
    C$debug_line296                          0x00002f1c   Data           0  xy_track.o(.debug_line)
    C$debug_pubnames70                       0x00004a64   Data           0  dynamic_file.o(.debug_pubnames)
    C$debug_pubnames82                       0x00004bbc   Data           0  dynamic_file.o(.debug_pubnames)
    C$debug_pubnames118                      0x00004c74   Data           0  dynamic_file.o(.debug_pubnames)
    C$debug_pubnames178                      0x00004cd4   Data           0  dynamic_file.o(.debug_pubnames)
    C$debug_pubnames202                      0x00004e44   Data           0  dynamic_file.o(.debug_pubnames)
    C$debug_pubnames214                      0x0000505c   Data           0  dynamic_file.o(.debug_pubnames)
    C$debug_pubnames226                      0x000050cc   Data           0  dynamic_file.o(.debug_pubnames)
    C$debug_info27                           0x00005b00   Data           0  dynamic_file.o(.debug_info)
    C$debug_info69                           0x00005d34   Data           0  dynamic_file.o(.debug_info)
    C$debug_loc300                           0x00005ea4   Data           0  xy_track.o(.debug_loc)
    C$debug_info81                           0x00005fb8   Data           0  dynamic_file.o(.debug_info)
    C$debug_info117                          0x000061b4   Data           0  dynamic_file.o(.debug_info)
    C$debug_info177                          0x00006334   Data           0  dynamic_file.o(.debug_info)
    C$debug_info201                          0x00006eec   Data           0  dynamic_file.o(.debug_info)
    C$debug_info213                          0x0000716c   Data           0  dynamic_file.o(.debug_info)
    C$debug_info225                          0x000072a8   Data           0  dynamic_file.o(.debug_info)
    C$debug_pubnames304                      0x00007564   Data           0  xy_track.o(.debug_pubnames)
    C$debug_pubnames310                      0x0000758c   Data           0  xy_track.o(.debug_pubnames)
    C$debug_pubnames298                      0x000075b0   Data           0  xy_track.o(.debug_pubnames)
    C$debug_info303                          0x0001554c   Data           0  xy_track.o(.debug_info)
    C$debug_info309                          0x0001564c   Data           0  xy_track.o(.debug_info)
    C$debug_info297                          0x00015704   Data           0  xy_track.o(.debug_info)
    .bss$2                                   0x0039ba28   Data           0  xy_track.o(.bss)
    last_pos_lat@xy_track_dataup_task_0      0x0039ba28   Data           8  xy_track.o(.bss)
    last_pos_lng@xy_track_dataup_task_1      0x0039ba30   Data           8  xy_track.o(.bss)
    D:\software\QQfile_recv\T808_Protocol\dynamic_app\track\xy_watchdog.c 0x00000000   Number         0  xy_watchdog.o ABSOLUTE
    .bss                                     0x0039ba38   Data           0  xy_watchdog.o(.bss)
    .text                                    0x0038e680   ARM Code       0  xy_watchdog.o(.text)
    C$debug_macinfo29                        0x00000000   Data           0  dynamic_file.o(.debug_macinfo)
    C$debug_abbrev0                          0x00000010   Data           0  dynamic_file.o(.debug_abbrev)
    C$debug_info39                           0x00000090   Data           0  dynamic_file.o(.debug_info)
    C$debug_pubnames28                       0x000000d4   Data           0  dynamic_file.o(.debug_pubnames)
    C$debug_line26                           0x00000154   Data           0  dynamic_file.o(.debug_line)
    C$debug_macinfo41                        0x0000015c   Data           0  dynamic_file.o(.debug_macinfo)
    C$debug_line38                           0x000001a4   Data           0  dynamic_file.o(.debug_line)
    C$debug_pubnames40                       0x000001b4   Data           0  dynamic_file.o(.debug_pubnames)
    C$debug_line68                           0x00000210   Data           0  dynamic_file.o(.debug_line)
    C$debug_line80                           0x00000290   Data           0  dynamic_file.o(.debug_line)
    C$debug_line116                          0x00000310   Data           0  dynamic_file.o(.debug_line)
    C$debug_line176                          0x0000038c   Data           0  dynamic_file.o(.debug_line)
    C$debug_line200                          0x0000043c   Data           0  dynamic_file.o(.debug_line)
    C$debug_line212                          0x000004ec   Data           0  dynamic_file.o(.debug_line)
    C$debug_line224                          0x0000059c   Data           0  dynamic_file.o(.debug_line)
    C$debug_macinfo71                        0x0000094c   Data           0  dynamic_file.o(.debug_macinfo)
    C$debug_macinfo83                        0x00000984   Data           0  dynamic_file.o(.debug_macinfo)
    C$debug_macinfo119                       0x00000a1c   Data           0  dynamic_file.o(.debug_macinfo)
    C$debug_macinfo179                       0x00000a64   Data           0  dynamic_file.o(.debug_macinfo)
    C$debug_macinfo203                       0x00000d04   Data           0  dynamic_file.o(.debug_macinfo)
    C$debug_macinfo215                       0x00000d1c   Data           0  dynamic_file.o(.debug_macinfo)
    C$debug_macinfo227                       0x00000d84   Data           0  dynamic_file.o(.debug_macinfo)
    C$debug_frame301                         0x00001870   Data           0  xy_watchdog.o(.debug_frame)
    C$debug_macinfo5                         0x00002760   Data           0  xy_watchdog.o(.debug_macinfo)
    C$debug_line2                            0x00003170   Data           0  xy_watchdog.o(.debug_line)
    C$debug_line296                          0x0000322c   Data           0  xy_watchdog.o(.debug_line)
    C$debug_pubnames70                       0x00004a64   Data           0  dynamic_file.o(.debug_pubnames)
    C$debug_pubnames82                       0x00004bbc   Data           0  dynamic_file.o(.debug_pubnames)
    C$debug_pubnames118                      0x00004c74   Data           0  dynamic_file.o(.debug_pubnames)
    C$debug_pubnames178                      0x00004cd4   Data           0  dynamic_file.o(.debug_pubnames)
    C$debug_pubnames202                      0x00004e44   Data           0  dynamic_file.o(.debug_pubnames)
    C$debug_pubnames214                      0x0000505c   Data           0  dynamic_file.o(.debug_pubnames)
    C$debug_pubnames226                      0x000050cc   Data           0  dynamic_file.o(.debug_pubnames)
    C$debug_info27                           0x00005b00   Data           0  dynamic_file.o(.debug_info)
    C$debug_info69                           0x00005d34   Data           0  dynamic_file.o(.debug_info)
    C$debug_info81                           0x00005fb8   Data           0  dynamic_file.o(.debug_info)
    C$debug_info117                          0x000061b4   Data           0  dynamic_file.o(.debug_info)
    C$debug_info177                          0x00006334   Data           0  dynamic_file.o(.debug_info)
    C$debug_loc300                           0x00006458   Data           0  xy_watchdog.o(.debug_loc)
    C$debug_info201                          0x00006eec   Data           0  dynamic_file.o(.debug_info)
    C$debug_info213                          0x0000716c   Data           0  dynamic_file.o(.debug_info)
    C$debug_info225                          0x000072a8   Data           0  dynamic_file.o(.debug_info)
    C$debug_pubnames304                      0x00007660   Data           0  xy_watchdog.o(.debug_pubnames)
    C$debug_pubnames4                        0x00007688   Data           0  xy_watchdog.o(.debug_pubnames)
    C$debug_pubnames298                      0x000076b0   Data           0  xy_watchdog.o(.debug_pubnames)
    C$debug_info303                          0x0001620c   Data           0  xy_watchdog.o(.debug_info)
    C$debug_info3                            0x000162b8   Data           0  xy_watchdog.o(.debug_info)
    C$debug_info297                          0x00016360   Data           0  xy_watchdog.o(.debug_info)
    .bss$2                                   0x0039ba38   Data           0  xy_watchdog.o(.bss)
    s_watchdog_status                        0x0039ba38   Data           1  xy_watchdog.o(.bss)
    D:\software\QQfile_recv\T808_Protocol\dynamic_app\track\xy_t808_protocol.c 0x00000000   Number         0  xy_t808_protocol.o ABSOLUTE
    .bss                                     0x0039ba3a   Data           0  xy_t808_protocol.o(.bss)
    .constdata                               0x003996f0   Data           0  xy_t808_protocol.o(.constdata)
    .text                                    0x0038e72c   ARM Code       0  xy_t808_protocol.o(.text)
    C$debug_macinfo29                        0x00000000   Data           0  dynamic_file.o(.debug_macinfo)
    C$debug_abbrev0                          0x00000010   Data           0  dynamic_file.o(.debug_abbrev)
    C$debug_info39                           0x00000090   Data           0  dynamic_file.o(.debug_info)
    C$debug_pubnames28                       0x000000d4   Data           0  dynamic_file.o(.debug_pubnames)
    C$debug_line26                           0x00000154   Data           0  dynamic_file.o(.debug_line)
    C$debug_macinfo41                        0x0000015c   Data           0  dynamic_file.o(.debug_macinfo)
    C$debug_line38                           0x000001a4   Data           0  dynamic_file.o(.debug_line)
    C$debug_pubnames40                       0x000001b4   Data           0  dynamic_file.o(.debug_pubnames)
    C$debug_line68                           0x00000210   Data           0  dynamic_file.o(.debug_line)
    C$debug_line80                           0x00000290   Data           0  dynamic_file.o(.debug_line)
    C$debug_line116                          0x00000310   Data           0  dynamic_file.o(.debug_line)
    C$debug_line176                          0x0000038c   Data           0  dynamic_file.o(.debug_line)
    C$debug_line200                          0x0000043c   Data           0  dynamic_file.o(.debug_line)
    C$debug_line212                          0x000004ec   Data           0  dynamic_file.o(.debug_line)
    C$debug_line224                          0x0000059c   Data           0  dynamic_file.o(.debug_line)
    C$debug_macinfo71                        0x0000094c   Data           0  dynamic_file.o(.debug_macinfo)
    C$debug_macinfo83                        0x00000984   Data           0  dynamic_file.o(.debug_macinfo)
    C$debug_macinfo119                       0x00000a1c   Data           0  dynamic_file.o(.debug_macinfo)
    C$debug_macinfo179                       0x00000a64   Data           0  dynamic_file.o(.debug_macinfo)
    C$debug_macinfo203                       0x00000d04   Data           0  dynamic_file.o(.debug_macinfo)
    C$debug_macinfo215                       0x00000d1c   Data           0  dynamic_file.o(.debug_macinfo)
    C$debug_macinfo227                       0x00000d84   Data           0  dynamic_file.o(.debug_macinfo)
    C$debug_frame301                         0x000018c8   Data           0  xy_t808_protocol.o(.debug_frame)
    C$debug_macinfo5                         0x00002920   Data           0  xy_t808_protocol.o(.debug_macinfo)
    C$debug_line2                            0x00003314   Data           0  xy_t808_protocol.o(.debug_line)
    C$debug_line296                          0x000033d4   Data           0  xy_t808_protocol.o(.debug_line)
    C$debug_pubnames70                       0x00004a64   Data           0  dynamic_file.o(.debug_pubnames)
    C$debug_pubnames82                       0x00004bbc   Data           0  dynamic_file.o(.debug_pubnames)
    C$debug_pubnames118                      0x00004c74   Data           0  dynamic_file.o(.debug_pubnames)
    C$debug_pubnames178                      0x00004cd4   Data           0  dynamic_file.o(.debug_pubnames)
    C$debug_pubnames202                      0x00004e44   Data           0  dynamic_file.o(.debug_pubnames)
    C$debug_pubnames214                      0x0000505c   Data           0  dynamic_file.o(.debug_pubnames)
    C$debug_pubnames226                      0x000050cc   Data           0  dynamic_file.o(.debug_pubnames)
    C$debug_info27                           0x00005b00   Data           0  dynamic_file.o(.debug_info)
    C$debug_info69                           0x00005d34   Data           0  dynamic_file.o(.debug_info)
    C$debug_info81                           0x00005fb8   Data           0  dynamic_file.o(.debug_info)
    C$debug_info117                          0x000061b4   Data           0  dynamic_file.o(.debug_info)
    C$debug_info177                          0x00006334   Data           0  dynamic_file.o(.debug_info)
    C$debug_loc300                           0x0000648c   Data           0  xy_t808_protocol.o(.debug_loc)
    C$debug_info201                          0x00006eec   Data           0  dynamic_file.o(.debug_info)
    C$debug_info213                          0x0000716c   Data           0  dynamic_file.o(.debug_info)
    C$debug_info225                          0x000072a8   Data           0  dynamic_file.o(.debug_info)
    C$debug_pubnames304                      0x000076ec   Data           0  xy_t808_protocol.o(.debug_pubnames)
    C$debug_pubnames310                      0x00007720   Data           0  xy_t808_protocol.o(.debug_pubnames)
    C$debug_pubnames316                      0x00007754   Data           0  xy_t808_protocol.o(.debug_pubnames)
    C$debug_pubnames322                      0x0000777c   Data           0  xy_t808_protocol.o(.debug_pubnames)
    C$debug_pubnames328                      0x000077a4   Data           0  xy_t808_protocol.o(.debug_pubnames)
    C$debug_pubnames334                      0x000077cc   Data           0  xy_t808_protocol.o(.debug_pubnames)
    C$debug_pubnames340                      0x000077f0   Data           0  xy_t808_protocol.o(.debug_pubnames)
    C$debug_pubnames346                      0x00007818   Data           0  xy_t808_protocol.o(.debug_pubnames)
    C$debug_pubnames4                        0x00007844   Data           0  xy_t808_protocol.o(.debug_pubnames)
    C$debug_pubnames298                      0x00007a60   Data           0  xy_t808_protocol.o(.debug_pubnames)
    C$debug_info303                          0x00016448   Data           0  xy_t808_protocol.o(.debug_info)
    C$debug_info309                          0x000165a4   Data           0  xy_t808_protocol.o(.debug_info)
    C$debug_info315                          0x000166ec   Data           0  xy_t808_protocol.o(.debug_info)
    C$debug_info321                          0x000167c4   Data           0  xy_t808_protocol.o(.debug_info)
    C$debug_info327                          0x0001689c   Data           0  xy_t808_protocol.o(.debug_info)
    C$debug_info3                            0x00016974   Data           0  xy_t808_protocol.o(.debug_info)
    C$debug_info333                          0x00016f68   Data           0  xy_t808_protocol.o(.debug_info)
    C$debug_info339                          0x00017068   Data           0  xy_t808_protocol.o(.debug_info)
    C$debug_info345                          0x0001713c   Data           0  xy_t808_protocol.o(.debug_info)
    C$debug_info297                          0x00017218   Data           0  xy_t808_protocol.o(.debug_info)
    xy_data_pack_position                    0x0038e8a4   ARM Code     832  xy_t808_protocol.o(.text)
    xy_data_pack_get_one_param_info          0x0038ebe4   ARM Code     940  xy_t808_protocol.o(.text)
    xy_data_pack_set_one_param_info          0x0038ef90   ARM Code    1036  xy_t808_protocol.o(.text)
    xy_data_pack_attr_info                   0x0038f39c   ARM Code     288  xy_t808_protocol.o(.text)
    .constdata$1                             0x003996f0   Data           0  xy_t808_protocol.o(.constdata)
    .bss$2                                   0x0039ba3a   Data           0  xy_t808_protocol.o(.bss)
    s_xy_t808_data                           0x0039ba3a   Data           4  xy_t808_protocol.o(.bss)
    E:\mt2503DL\dynamic_app\dynamic\dynamic_api.c 0x00000000   Number         0  dynamic_api.o ABSOLUTE
    .text                                    0x003902f8   ARM Code       0  dynamic_api.o(.text)
    .bss                                     0x0039ba40   Data           0  dynamic_api.o(.bss)
    C$debug_frame3                           0x00001bb0   Data           0  dynamic_api.o(.debug_frame)
    dynamic_load_general_apis                0x003902f8   ARM Code    8756  dynamic_api.o(.text)
    |L1.940|                                 0x003906a4   Data           0  dynamic_api.o(.text)
    .bss$2                                   0x0039ba40   Data           0  dynamic_api.o(.bss)
    ../../printf.c                           0x00000000   Number         0  _sprintf.o ABSOLUTE
    .text                                    0x00392554   Thumb Code     0  _sprintf.o(.text)
    C$debug_frame18                          0x00001c20   Data           0  _sprintf.o(.debug_frame)
    ../../scanf.c                            0x00000000   Number         0  atoi.o ABSOLUTE
    .text                                    0x00392598   Thumb Code     0  atoi.o(.text)
    C$debug_frame22                          0x00001c84   Data           0  atoi.o(.debug_frame)
    ../../locale.c                           0x00000000   Number         0  locale.o ABSOLUTE
    .text                                    0x003925bc   Thumb Code     0  locale.o(.text)
    .bss                                     0x0039bc68   Data           0  locale.o(.bss)
    .constdata                               0x00399726   Data           0  locale.o(.constdata)
    C$debug_frame19                          0x00001cdc   Data           0  locale.o(.debug_frame)
    _locale_name                             0x003925bc   Thumb Code   142  locale.o(.text)
    .constdata$1                             0x00399726   Data           0  locale.o(.constdata)
    __lcnull_start                           0x00399726   Data           1  locale.o(.constdata)
    .bss$2                                   0x0039bc68   Data           0  locale.o(.bss)
    mixed_name_buf@_locale_name_0            0x0039bc68   Data          42  locale.o(.bss)
    ../../memcpset.s                         0x00000000   Number         0  rt_memclr.o ABSOLUTE
    <Anonymous Symbol>                       0x00001d70   Data          68  rt_memclr.o(.debug_frame)
    .text                                    0x00392770   Thumb Code    72  rt_memclr.o(.text)
    _Bytes                                   0x003927a4   ARM Code       0  rt_memclr.o(.text)
    ../../memcpset.s                         0x00000000   Number         0  rt_memclr_w.o ABSOLUTE
    .text                                    0x003927b8   Thumb Code    92  rt_memclr_w.o(.text)
    <Anonymous Symbol>                       0x00001db4   Data          84  rt_memclr_w.o(.debug_frame)
    _loop                                    0x003927d4   ARM Code       0  rt_memclr_w.o(.text)
    ../../memcpset.s                         0x00000000   Number         0  rt_memcpy.o ABSOLUTE
    .text                                    0x00392814   Thumb Code   184  rt_memcpy.o(.text)
    <Anonymous Symbol>                       0x00001e08   Data          60  rt_memcpy.o(.debug_frame)
    _memcpy_dest_aligned                     0x0039284c   ARM Code       0  rt_memcpy.o(.text)
    _memcpy_src1_loop                        0x0039286c   ARM Code       0  rt_memcpy.o(.text)
    _memcpy_src2_loop                        0x0039288c   ARM Code       0  rt_memcpy.o(.text)
    _memcpy_src3_loop                        0x003928ac   ARM Code       0  rt_memcpy.o(.text)
    ../../memcpset.s                         0x00000000   Number         0  rt_memcpy_w.o ABSOLUTE
    .text                                    0x003928cc   Thumb Code   112  rt_memcpy_w.o(.text)
    <Anonymous Symbol>                       0x00001e44   Data          84  rt_memcpy_w.o(.debug_frame)
    _memcpy_aligned_loop                     0x003928dc   ARM Code       0  rt_memcpy_w.o(.text)
    _memcpy_small                            0x003928f4   ARM Code       0  rt_memcpy_w.o(.text)
    ../../memcpset.s                         0x00000000   Number         0  rt_memset.o ABSOLUTE
    <Anonymous Symbol>                       0x00001e98   Data          60  rt_memset.o(.debug_frame)
    .text                                    0x0039293c   Thumb Code    24  rt_memset.o(.text)
    ../../division.s                         0x00000000   Number         0  rt_udiv.o ABSOLUTE
    <Anonymous Symbol>                       0x00001ed4   Data          68  rt_udiv.o(.debug_frame)
    .text                                    0x00392954   Thumb Code   196  rt_udiv.o(.text)
    ../../division.s                         0x00000000   Number         0  rtudiv10.o ABSOLUTE
    .text                                    0x00392a18   Thumb Code    48  rtudiv10.o(.text)
    <Anonymous Symbol>                       0x00001f18   Data          68  rtudiv10.o(.debug_frame)
    ../../printf.c                           0x00000000   Number         0  sprintf.o ABSOLUTE
    .text                                    0x00392a48   Thumb Code     0  sprintf.o(.text)
    C$debug_frame18                          0x00001f5c   Data           0  sprintf.o(.debug_frame)
    ../../scanf.c                            0x00000000   Number         0  sscanfn.o ABSOLUTE
    .text                                    0x00392a8c   Thumb Code     0  sscanfn.o(.text)
    C$debug_frame22                          0x00001fc0   Data           0  sscanfn.o(.debug_frame)
    ../../memcpset.s                         0x00000000   Number         0  strcmp.o ABSOLUTE
    <Anonymous Symbol>                       0x00002018   Data          84  strcmp.o(.debug_frame)
    .text                                    0x00392acc   Data         164  strcmp.o(.text)
    _ones_word                               0x00392acc   Data           4  strcmp.o(.text)
    _strcmp_loop                             0x00392ae8   ARM Code       0  strcmp.o(.text)
    _strcmp_return                           0x00392b38   ARM Code       0  strcmp.o(.text)
    _strcmp_byteloop                         0x00392b40   ARM Code       0  strcmp.o(.text)
    _strcmp_byteend                          0x00392b68   ARM Code       0  strcmp.o(.text)
    ../../string.c                           0x00000000   Number         0  strlen.o ABSOLUTE
    .text                                    0x00392b70   Thumb Code     0  strlen.o(.text)
    C$debug_frame12                          0x0000206c   Data           0  strlen.o(.debug_frame)
    ../../string.c                           0x00000000   Number         0  strncmp.o ABSOLUTE
    .text                                    0x00392bbc   Thumb Code     0  strncmp.o(.text)
    C$debug_frame12                          0x000020b8   Data           0  strncmp.o(.debug_frame)
    ../../string.c                           0x00000000   Number         0  strncpy.o ABSOLUTE
    .text                                    0x00392c0c   Thumb Code     0  strncpy.o(.text)
    C$debug_frame12                          0x00002108   Data           0  strncpy.o(.debug_frame)
    ../../string.c                           0x00000000   Number         0  strstr.o ABSOLUTE
    .text                                    0x00392c60   Thumb Code     0  strstr.o(.text)
    C$debug_frame12                          0x0000215c   Data           0  strstr.o(.debug_frame)
    ../../unhosted.s                         0x00000000   Number         0  uread4.o ABSOLUTE
    <Anonymous Symbol>                       0x000021a8   Data          68  uread4.o(.debug_frame)
    .text                                    0x00392c88   Thumb Code    36  uread4.o(.text)
    ../../unhosted.s                         0x00000000   Number         0  uwrite4.o ABSOLUTE
    .text                                    0x00392cac   Thumb Code    36  uwrite4.o(.text)
    <Anonymous Symbol>                       0x000021ec   Data          68  uwrite4.o(.debug_frame)
    ../../daddsub.s                          0x00000000   Number         0  daddsub_clz.o ABSOLUTE
    x$fpl$dadd                               0x003975b0   Thumb Code  1236  daddsub_clz.o(x$fpl$dadd)
    <Anonymous Symbol>                       0x00002230   Data         356  daddsub_clz.o(.debug_frame)
    _dadd1                                   0x003975d4   ARM Code       0  daddsub_clz.o(x$fpl$dadd)
    dadd_swapped                             0x003975f0   ARM Code       0  daddsub_clz.o(x$fpl$dadd)
    dadd_doadd                               0x0039760c   ARM Code       0  daddsub_clz.o(x$fpl$dadd)
    dadd_nocarry                             0x00397630   ARM Code       0  daddsub_clz.o(x$fpl$dadd)
    dadd_roundeven                           0x00397648   ARM Code       0  daddsub_clz.o(x$fpl$dadd)
    dadd_check_overflow_inx                  0x00397654   ARM Code       0  daddsub_clz.o(x$fpl$dadd)
    dadd_bigshift                            0x0039766c   ARM Code       0  daddsub_clz.o(x$fpl$dadd)
    dadd_carry                               0x00397694   ARM Code       0  daddsub_clz.o(x$fpl$dadd)
    dadd_check_overflow_exact                0x003976cc   ARM Code       0  daddsub_clz.o(x$fpl$dadd)
    dadd_uncommon                            0x003976e4   ARM Code       0  daddsub_clz.o(x$fpl$dadd)
    dadd_bzero                               0x00397714   ARM Code       0  daddsub_clz.o(x$fpl$dadd)
    dadd_naninf                              0x00397730   ARM Code       0  daddsub_clz.o(x$fpl$dadd)
    dadd_twoinf                              0x00397788   ARM Code       0  daddsub_clz.o(x$fpl$dadd)
    drsb_naninf                              0x003977cc   ARM Code       0  daddsub_clz.o(x$fpl$dadd)
    _dsub1                                   0x0039780c   ARM Code       0  daddsub_clz.o(x$fpl$dadd)
    dsub_swapped                             0x0039782c   ARM Code       0  daddsub_clz.o(x$fpl$dadd)
    dsub_dosub                               0x0039784c   ARM Code       0  daddsub_clz.o(x$fpl$dadd)
    dsub_noborrow                            0x00397868   ARM Code       0  daddsub_clz.o(x$fpl$dadd)
    dsub_bigshift                            0x00397898   ARM Code       0  daddsub_clz.o(x$fpl$dadd)
    dsub_borrow                              0x003978c0   ARM Code       0  daddsub_clz.o(x$fpl$dadd)
    dsub_renormalize                         0x00397900   ARM Code       0  daddsub_clz.o(x$fpl$dadd)
    dsub_renormbig                           0x00397954   ARM Code       0  daddsub_clz.o(x$fpl$dadd)
    dsub_renormed                            0x0039795c   ARM Code       0  daddsub_clz.o(x$fpl$dadd)
    dsub_hugeshift                           0x0039797c   ARM Code       0  daddsub_clz.o(x$fpl$dadd)
    dsub_ex_one                              0x00397988   ARM Code       0  daddsub_clz.o(x$fpl$dadd)
    dsub_uncommon                            0x0039799c   ARM Code       0  daddsub_clz.o(x$fpl$dadd)
    dsub_both_denorm                         0x003979c4   ARM Code       0  daddsub_clz.o(x$fpl$dadd)
    dsub_bzero                               0x003979d4   ARM Code       0  daddsub_clz.o(x$fpl$dadd)
    dsub_retzero                             0x003979e0   ARM Code       0  daddsub_clz.o(x$fpl$dadd)
    dsub_denorm                              0x003979e8   ARM Code       0  daddsub_clz.o(x$fpl$dadd)
    daddsub_denorm                           0x003979ec   ARM Code       0  daddsub_clz.o(x$fpl$dadd)
    dsub_naninf                              0x00397a04   ARM Code       0  daddsub_clz.o(x$fpl$dadd)
    dsub_twoinf                              0x00397a5c   ARM Code       0  daddsub_clz.o(x$fpl$dadd)
    ../../ddiv.s                             0x00000000   Number         0  ddiv.o ABSOLUTE
    x$fpl$ddiv                               0x00397ba0   Thumb Code  1484  ddiv.o(x$fpl$ddiv)
    <Anonymous Symbol>                       0x00002394   Data         256  ddiv.o(.debug_frame)
    ddiv_entry                               0x00397bcc   ARM Code       0  ddiv.o(x$fpl$ddiv)
    ddiv_normalised                          0x00397bf4   ARM Code       0  ddiv.o(x$fpl$ddiv)
    ddiv_exact                               0x00397c6c   ARM Code       0  ddiv.o(x$fpl$ddiv)
    ddiv_rounded                             0x00397c6c   ARM Code       0  ddiv.o(x$fpl$ddiv)
    ddiv_outflow                             0x00397cac   ARM Code       0  ddiv.o(x$fpl$ddiv)
    ddiv_zerodenorm                          0x00397ccc   ARM Code       0  ddiv.o(x$fpl$ddiv)
    ddiv_done_op2                            0x00397ce4   ARM Code       0  ddiv.o(x$fpl$ddiv)
    ddiv_azero                               0x00397cf0   ARM Code       0  ddiv.o(x$fpl$ddiv)
    ddiv_divbyzero                           0x00397d08   ARM Code       0  ddiv.o(x$fpl$ddiv)
    ddiv_renorm_op1                          0x00397d14   ARM Code       0  ddiv.o(x$fpl$ddiv)
    ddiv_renorm_op2                          0x00397d90   ARM Code       0  ddiv.o(x$fpl$ddiv)
    ddiv_naninf                              0x00397e0c   ARM Code       0  ddiv.o(x$fpl$ddiv)
    ddiv_xoverinf                            0x00397e5c   ARM Code       0  ddiv.o(x$fpl$ddiv)
    ddiv_ivo_pop                             0x00397e6c   ARM Code       0  ddiv.o(x$fpl$ddiv)
    ddiv_ivo                                 0x00397e70   ARM Code       0  ddiv.o(x$fpl$ddiv)
    ddiv_reciptbl                            0x003980dc   Data           0  ddiv.o(x$fpl$ddiv)
    ../../deqf.s                             0x00000000   Number         0  deqf.o ABSOLUTE
    x$fpl$deqf                               0x0039816c   Thumb Code   132  deqf.o(x$fpl$deqf)
    <Anonymous Symbol>                       0x00002494   Data          96  deqf.o(.debug_frame)
    _dcmpeq_check_NaNInf_pos                 0x00398190   ARM Code       0  deqf.o(x$fpl$deqf)
    _dcmpeq_negative                         0x003981a8   ARM Code       0  deqf.o(x$fpl$deqf)
    _dcmpeq_check_NaNInf_neg                 0x003981c8   ARM Code       0  deqf.o(x$fpl$deqf)
    dcmpeq_InfNaN                            0x003981e4   ARM Code       0  deqf.o(x$fpl$deqf)
    ../../dfixu.s                            0x00000000   Number         0  dfixu.o ABSOLUTE
    x$fpl$dfixu                              0x00398298   Thumb Code   168  dfixu.o(x$fpl$dfixu)
    <Anonymous Symbol>                       0x000024f4   Data         116  dfixu.o(.debug_frame)
    dfixu_negative                           0x003982f8   ARM Code       0  dfixu.o(x$fpl$dfixu)
    dfixu_ivo                                0x00398310   ARM Code       0  dfixu.o(x$fpl$dfixu)
    ../../dflt.s                             0x00000000   Number         0  dflt_clz.o ABSOLUTE
    x$fpl$dflt                               0x00398340   Thumb Code    68  dflt_clz.o(x$fpl$dflt)
    <Anonymous Symbol>                       0x00002568   Data          88  dflt_clz.o(.debug_frame)
    ../../dgeqf.s                            0x00000000   Number         0  dgeqf.o ABSOLUTE
    <Anonymous Symbol>                       0x000025c0   Data          96  dgeqf.o(.debug_frame)
    x$fpl$dgeqf                              0x00398384   Thumb Code   132  dgeqf.o(x$fpl$dgeqf)
    _dcmpge_check_NaNInf_pos                 0x003983a8   ARM Code       0  dgeqf.o(x$fpl$dgeqf)
    _dcmpge_negative                         0x003983c0   ARM Code       0  dgeqf.o(x$fpl$dgeqf)
    _dcmpge_check_NaNInf_neg                 0x003983e0   ARM Code       0  dgeqf.o(x$fpl$dgeqf)
    dcmpge_InfNaN                            0x003983fc   ARM Code       0  dgeqf.o(x$fpl$dgeqf)
    ../../dmul.s                             0x00000000   Number         0  dmul_mull.o ABSOLUTE
    x$fpl$dmul                               0x0039848c   Thumb Code   704  dmul_mull.o(x$fpl$dmul)
    <Anonymous Symbol>                       0x00002620   Data         128  dmul_mull.o(.debug_frame)
    dmul_normalised                          0x003984bc   ARM Code       0  dmul_mull.o(x$fpl$dmul)
    dmul_exact                               0x00398564   ARM Code       0  dmul_mull.o(x$fpl$dmul)
    dmul_rounded                             0x00398564   ARM Code       0  dmul_mull.o(x$fpl$dmul)
    dmul_outflow                             0x003985a4   ARM Code       0  dmul_mull.o(x$fpl$dmul)
    dmul_zerodenorm                          0x003985c4   ARM Code       0  dmul_mull.o(x$fpl$dmul)
    dmul_done_op2                            0x003985d8   ARM Code       0  dmul_mull.o(x$fpl$dmul)
    dmul_zero                                0x003985e4   ARM Code       0  dmul_mull.o(x$fpl$dmul)
    dmul_renorm_op1                          0x003985f4   ARM Code       0  dmul_mull.o(x$fpl$dmul)
    dmul_renorm_op2                          0x00398670   ARM Code       0  dmul_mull.o(x$fpl$dmul)
    dmul_naninf                              0x003986ec   ARM Code       0  dmul_mull.o(x$fpl$dmul)
    dmul_ivo                                 0x00398738   ARM Code       0  dmul_mull.o(x$fpl$dmul)
    ../../f2d.s                              0x00000000   Number         0  f2d.o ABSOLUTE
    <Anonymous Symbol>                       0x000026a0   Data          84  f2d.o(.debug_frame)
    x$fpl$f2d                                0x00398fdc   Thumb Code   108  f2d.o(x$fpl$f2d)
    _f2d_uncommon                            0x00399004   ARM Code       0  f2d.o(x$fpl$f2d)
    _f2d_Inf_or_NaN                          0x00399028   ARM Code       0  f2d.o(x$fpl$f2d)
    ../../ffix.s                             0x00000000   Number         0  ffix.o ABSOLUTE
    <Anonymous Symbol>                       0x000026f4   Data         100  ffix.o(.debug_frame)
    x$fpl$ffix                               0x0039908c   Thumb Code   108  ffix.o(x$fpl$ffix)
    ffix_negative                            0x003990b0   ARM Code       0  ffix.o(x$fpl$ffix)
    ffix_ivo                                 0x003990d0   ARM Code       0  ffix.o(x$fpl$ffix)
    ../../ffixu.s                            0x00000000   Number         0  ffixu.o ABSOLUTE
    x$fpl$ffixu                              0x003990f8   Data         112  ffixu.o(x$fpl$ffixu)
    <Anonymous Symbol>                       0x00002758   Data         100  ffixu.o(.debug_frame)
    ffixu_negative                           0x0039912c   ARM Code       0  ffixu.o(x$fpl$ffixu)
    ffixu_ivo                                0x00399140   ARM Code       0  ffixu.o(x$fpl$ffixu)
    ../../fgeqf.s                            0x00000000   Number         0  fgeqf.o ABSOLUTE
    x$fpl$fgeqf                              0x00399168   Thumb Code   108  fgeqf.o(x$fpl$fgeqf)
    <Anonymous Symbol>                       0x000027bc   Data          84  fgeqf.o(.debug_frame)
    _fcmpge_NaNInf_check_pos                 0x00399184   ARM Code       0  fgeqf.o(x$fpl$fgeqf)
    _fcmpge_negative                         0x0039919c   ARM Code       0  fgeqf.o(x$fpl$fgeqf)
    _fcmpge_NaNInf_check_neg                 0x003991b0   ARM Code       0  fgeqf.o(x$fpl$fgeqf)
    fcmpge_InfNaN                            0x003991c8   ARM Code       0  fgeqf.o(x$fpl$fgeqf)
    ../../fmul.s                             0x00000000   Number         0  fmul_mull.o ABSOLUTE
    x$fpl$fmul                               0x003991d4   Thumb Code   300  fmul_mull.o(x$fpl$fmul)
    <Anonymous Symbol>                       0x00002810   Data         100  fmul_mull.o(.debug_frame)
    fmul_mul                                 0x00399204   ARM Code       0  fmul_mull.o(x$fpl$fmul)
    fmul_overflow                            0x00399284   ARM Code       0  fmul_mull.o(x$fpl$fmul)
    fmul_uncommon                            0x0039929c   ARM Code       0  fmul_mull.o(x$fpl$fmul)
    fmul_inf_NaN                             0x003992cc   ARM Code       0  fmul_mull.o(x$fpl$fmul)
    ../../asin.c                             0x00000000   Number         0  asin.o ABSOLUTE
    .text                                    0x00392cd0   ARM Code       0  asin.o(.text)
    .constdata                               0x00399728   Data           0  asin.o(.constdata)
    C$debug_frame4                           0x00002874   Data           0  asin.o(.debug_frame)
    .constdata$1                             0x00399728   Data           0  asin.o(.constdata)
    pS                                       0x00399728   Data          48  asin.o(.constdata)
    qS                                       0x00399758   Data          32  asin.o(.constdata)
    ../../cos.c                              0x00000000   Number         0  cos.o ABSOLUTE
    .text                                    0x003930e0   ARM Code       0  cos.o(.text)
    C$debug_frame4                           0x000028e0   Data           0  cos.o(.debug_frame)
    ../../pow.c                              0x00000000   Number         0  pow.o ABSOLUTE
    .constdata                               0x00399778   Data           0  pow.o(.constdata)
    i._Copysign                              0x00397590   ARM Code       0  pow.o(i._Copysign)
    .text                                    0x003931c0   ARM Code       0  pow.o(.text)
    C$debug_frame5                           0x00002930   Data           0  pow.o(.debug_frame)
    C$debug_frame6                           0x000029c8   Data           0  pow.o(.debug_frame)
    _Copysign                                0x00397590   ARM Code      16  pow.o(i._Copysign)
    .constdata$1                             0x00399778   Data           0  pow.o(.constdata)
    bp                                       0x00399778   Data          16  pow.o(.constdata)
    dp_h                                     0x00399788   Data          16  pow.o(.constdata)
    dp_l                                     0x00399798   Data          16  pow.o(.constdata)
    L                                        0x003997a8   Data          48  pow.o(.constdata)
    P                                        0x003997d8   Data          40  pow.o(.constdata)
    ../../sin.c                              0x00000000   Number         0  sin.o ABSOLUTE
    .text                                    0x0039409c   ARM Code       0  sin.o(.text)
    C$debug_frame4                           0x00002a04   Data           0  sin.o(.debug_frame)
    ../../sqrt.c                             0x00000000   Number         0  sqrt.o ABSOLUTE
    .text                                    0x00394188   ARM Code       0  sqrt.o(.text)
    C$debug_frame6                           0x00002a54   Data           0  sqrt.o(.debug_frame)
    ../../printf.c                           0x00000000   Number         0  __vfpntf.o ABSOLUTE
    .text                                    0x003941fc   Thumb Code     0  __vfpntf.o(.text)
    C$debug_frame18                          0x00002aa4   Data           0  __vfpntf.o(.debug_frame)
    _printf_display                          0x00394790   Thumb Code   918  __vfpntf.o(.text)
    ../../fenv.c                             0x00000000   Number         0  _rserrno.o ABSOLUTE
    .text                                    0x00394b28   Thumb Code     0  _rserrno.o(.text)
    C$debug_frame15                          0x00002b44   Data           0  _rserrno.o(.debug_frame)
    ../../scanf.c                            0x00000000   Number         0  _scanf.o ABSOLUTE
    .text                                    0x00394b48   Thumb Code     0  _scanf.o(.text)
    C$debug_frame23                          0x00002bb8   Data           0  _scanf.o(.debug_frame)
    _rd_int                                  0x00394b48   Thumb Code   776  _scanf.o(.text)
    ../../printf.c                           0x00000000   Number         0  _sputc.o ABSOLUTE
    .text                                    0x00395334   Thumb Code     0  _sputc.o(.text)
    C$debug_frame18                          0x00002c54   Data           0  _sputc.o(.debug_frame)
    ../../locale.c                           0x00000000   Number         0  lc_collate_c.o ABSOLUTE
    .text                                    0x00395348   Thumb Code     0  lc_collate_c.o(.text)
    .constdata                               0x00399800   Data           0  lc_collate_c.o(.constdata)
    C$debug_frame19                          0x00002ca0   Data           0  lc_collate_c.o(.debug_frame)
    .constdata$1                             0x00399800   Data           0  lc_collate_c.o(.constdata)
    __lccoll_c_index                         0x00399800   Data           4  lc_collate_c.o(.constdata)
    __lccoll_c_lname                         0x00399804   Data           4  lc_collate_c.o(.constdata)
    __lccoll_c_pname                         0x00399808   Data           4  lc_collate_c.o(.constdata)
    __lccoll_c_start                         0x0039980c   Data           4  lc_collate_c.o(.constdata)
    ../../locale.c                           0x00000000   Number         0  lc_ctype_c.o ABSOLUTE
    .constdata                               0x00399810   Data           0  lc_ctype_c.o(.constdata)
    .text                                    0x00395374   Thumb Code     0  lc_ctype_c.o(.text)
    C$debug_frame19                          0x00002cf0   Data           0  lc_ctype_c.o(.debug_frame)
    .constdata$1                             0x00399810   Data           0  lc_ctype_c.o(.constdata)
    __lcctype_c_index                        0x00399810   Data           4  lc_ctype_c.o(.constdata)
    __lcctype_c_lname                        0x00399814   Data           4  lc_ctype_c.o(.constdata)
    __lcctype_c_pname                        0x00399818   Data           4  lc_ctype_c.o(.constdata)
    __lcctype_c_start                        0x0039981c   Data           1  lc_ctype_c.o(.constdata)
    ../../locale.c                           0x00000000   Number         0  lc_monetary_c.o ABSOLUTE
    .constdata                               0x00399920   Data           0  lc_monetary_c.o(.constdata)
    .text                                    0x003953a0   Thumb Code     0  lc_monetary_c.o(.text)
    C$debug_frame19                          0x00002d40   Data           0  lc_monetary_c.o(.debug_frame)
    .constdata$1                             0x00399920   Data           0  lc_monetary_c.o(.constdata)
    __lcmon_c_index                          0x00399920   Data           4  lc_monetary_c.o(.constdata)
    __lcmon_c_lname                          0x00399924   Data           4  lc_monetary_c.o(.constdata)
    __lcmon_c_pname                          0x00399928   Data           4  lc_monetary_c.o(.constdata)
    __lcmon_c_start                          0x0039992c   Data           1  lc_monetary_c.o(.constdata)
    __lcmon_c_fdchr                          0x0039992d   Data           1  lc_monetary_c.o(.constdata)
    __lcmon_c_pcchr                          0x0039992e   Data           1  lc_monetary_c.o(.constdata)
    __lcmon_c_pSchr                          0x0039992f   Data           1  lc_monetary_c.o(.constdata)
    __lcmon_c_ncchr                          0x00399930   Data           1  lc_monetary_c.o(.constdata)
    __lcmon_c_nSchr                          0x00399931   Data           1  lc_monetary_c.o(.constdata)
    __lcmon_c_ppchr                          0x00399932   Data           1  lc_monetary_c.o(.constdata)
    __lcmon_c_npchr                          0x00399933   Data           1  lc_monetary_c.o(.constdata)
    __lcmon_c_icoff                          0x00399934   Data           4  lc_monetary_c.o(.constdata)
    __lcmon_c_csoff                          0x00399938   Data           4  lc_monetary_c.o(.constdata)
    __lcmon_c_mdoff                          0x0039993c   Data           4  lc_monetary_c.o(.constdata)
    __lcmon_c_mtoff                          0x00399940   Data           4  lc_monetary_c.o(.constdata)
    __lcmon_c_mgoff                          0x00399944   Data           4  lc_monetary_c.o(.constdata)
    __lcmon_c_psoff                          0x00399948   Data           4  lc_monetary_c.o(.constdata)
    __lcmon_c_nsoff                          0x0039994c   Data           4  lc_monetary_c.o(.constdata)
    __lcmon_c_ictxt                          0x00399950   Data           1  lc_monetary_c.o(.constdata)
    __lcmon_c_cstxt                          0x00399951   Data           1  lc_monetary_c.o(.constdata)
    __lcmon_c_mdtxt                          0x00399952   Data           1  lc_monetary_c.o(.constdata)
    __lcmon_c_mttxt                          0x00399953   Data           1  lc_monetary_c.o(.constdata)
    __lcmon_c_mgtxt                          0x00399954   Data           1  lc_monetary_c.o(.constdata)
    __lcmon_c_pstxt                          0x00399955   Data           1  lc_monetary_c.o(.constdata)
    __lcmon_c_nstxt                          0x00399956   Data           1  lc_monetary_c.o(.constdata)
    ../../locale.c                           0x00000000   Number         0  lc_numeric_c.o ABSOLUTE
    .constdata                               0x00399958   Data           0  lc_numeric_c.o(.constdata)
    .text                                    0x003953cc   Thumb Code     0  lc_numeric_c.o(.text)
    C$debug_frame19                          0x00002d90   Data           0  lc_numeric_c.o(.debug_frame)
    .constdata$1                             0x00399958   Data           0  lc_numeric_c.o(.constdata)
    __lcnum_c_index                          0x00399958   Data           4  lc_numeric_c.o(.constdata)
    __lcnum_c_lname                          0x0039995c   Data           4  lc_numeric_c.o(.constdata)
    __lcnum_c_pname                          0x00399960   Data           4  lc_numeric_c.o(.constdata)
    __lcnum_c_start                          0x00399964   Data           4  lc_numeric_c.o(.constdata)
    __lcnum_c_tsoff                          0x00399968   Data           4  lc_numeric_c.o(.constdata)
    __lcnum_c_groff                          0x0039996c   Data           4  lc_numeric_c.o(.constdata)
    __lcnum_c_dptxt                          0x00399970   Data           2  lc_numeric_c.o(.constdata)
    __lcnum_c_tstxt                          0x00399972   Data           1  lc_numeric_c.o(.constdata)
    __lcnum_c_grtxt                          0x00399973   Data           1  lc_numeric_c.o(.constdata)
    ../../locale.c                           0x00000000   Number         0  lc_time_c.o ABSOLUTE
    .text                                    0x003953f8   Thumb Code     0  lc_time_c.o(.text)
    .constdata                               0x00399974   Data           0  lc_time_c.o(.constdata)
    C$debug_frame19                          0x00002de0   Data           0  lc_time_c.o(.debug_frame)
    .constdata$1                             0x00399974   Data           0  lc_time_c.o(.constdata)
    __lctime_c_index                         0x00399974   Data           4  lc_time_c.o(.constdata)
    __lctime_c_lname                         0x00399978   Data           4  lc_time_c.o(.constdata)
    __lctime_c_pname                         0x0039997c   Data           4  lc_time_c.o(.constdata)
    __lctime_c_start                         0x00399980   Data           4  lc_time_c.o(.constdata)
    __lctime_c_wfoff                         0x00399984   Data           4  lc_time_c.o(.constdata)
    __lctime_c_maoff                         0x00399988   Data           4  lc_time_c.o(.constdata)
    __lctime_c_mfoff                         0x0039998c   Data           4  lc_time_c.o(.constdata)
    __lctime_c_amoff                         0x00399990   Data           4  lc_time_c.o(.constdata)
    __lctime_c_pmoff                         0x00399994   Data           4  lc_time_c.o(.constdata)
    __lctime_c_dtoff                         0x00399998   Data           4  lc_time_c.o(.constdata)
    __lctime_c_dfoff                         0x0039999c   Data           4  lc_time_c.o(.constdata)
    __lctime_c_tfoff                         0x003999a0   Data           4  lc_time_c.o(.constdata)
    __lctime_c_wasiz                         0x003999a4   Data           4  lc_time_c.o(.constdata)
    __lctime_c_wfsiz                         0x003999a8   Data           4  lc_time_c.o(.constdata)
    __lctime_c_masiz                         0x003999ac   Data           4  lc_time_c.o(.constdata)
    __lctime_c_mfsiz                         0x003999b0   Data           4  lc_time_c.o(.constdata)
    __lctime_c_watxt                         0x003999b4   Data          28  lc_time_c.o(.constdata)
    __lctime_c_wftxt                         0x003999d0   Data          70  lc_time_c.o(.constdata)
    __lctime_c_matxt                         0x00399a16   Data          48  lc_time_c.o(.constdata)
    __lctime_c_mftxt                         0x00399a46   Data         120  lc_time_c.o(.constdata)
    __lctime_c_amtxt                         0x00399abe   Data           3  lc_time_c.o(.constdata)
    __lctime_c_pmtxt                         0x00399ac1   Data           3  lc_time_c.o(.constdata)
    __lctime_c_dttxt                         0x00399ac4   Data           6  lc_time_c.o(.constdata)
    __lctime_c_dftxt                         0x00399aca   Data           9  lc_time_c.o(.constdata)
    __lctime_c_tftxt                         0x00399ad3   Data           9  lc_time_c.o(.constdata)
    ../../angel/sys.s                        0x00000000   Number         0  libspace.o ABSOLUTE
    <Anonymous Symbol>                       0x00002e30   Data          68  libspace.o(.debug_frame)
    .bss                                     0x0039bc94   Data          96  libspace.o(.bss)
    .text                                    0x00395424   Thumb Code    16  libspace.o(.text)
    __libspace_start                         0x0039bc94   Data          96  libspace.o(.bss)
    ../../angel/rt.s                         0x00000000   Number         0  rt_div0.o ABSOLUTE
    <Anonymous Symbol>                       0x00002e74   Data          60  rt_div0.o(.debug_frame)
    .text                                    0x00395434   Thumb Code    16  rt_div0.o(.text)
    ../../angel/rt.s                         0x00000000   Number         0  rt_errno_addr.o ABSOLUTE
    <Anonymous Symbol>                       0x00002eb0   Data          80  rt_errno_addr.o(.debug_frame)
    .text                                    0x00395444   Thumb Code    20  rt_errno_addr.o(.text)
    ../../angel/rt.s                         0x00000000   Number         0  rt_fp_status_addr.o ABSOLUTE
    .text                                    0x00395458   Thumb Code    24  rt_fp_status_addr.o(.text)
    <Anonymous Symbol>                       0x00002f00   Data          80  rt_fp_status_addr.o(.debug_frame)
    ../../scanf.c                            0x00000000   Number         0  sgetc.o ABSOLUTE
    .text                                    0x00395470   Thumb Code     0  sgetc.o(.text)
    C$debug_frame22                          0x00002f50   Data           0  sgetc.o(.debug_frame)
    ../../scanf.c                            0x00000000   Number         0  strtol.o ABSOLUTE
    .text                                    0x003954b8   Thumb Code     0  strtol.o(.text)
    C$debug_frame22                          0x00002f9c   Data           0  strtol.o(.debug_frame)
    ../../printf1.s                          0x00000000   Number         0  printf1.o ABSOLUTE
    <Anonymous Symbol>                       0x00003000   Data          60  printf1.o(.debug_frame)
    x$fpl$printf1                            0x00399508   Thumb Code     8  printf1.o(x$fpl$printf1)
    ../../dcheck.s                           0x00000000   Number         0  dcheck.o ABSOLUTE
    <Anonymous Symbol>                       0x0000303c   Data          84  dcheck.o(.debug_frame)
    x$fpl$dcheck                             0x00397a84   Thumb Code    68  dcheck.o(x$fpl$dcheck)
    dcheck_except                            0x00397ac0   ARM Code       0  dcheck.o(x$fpl$dcheck)
    ../../dcheck1.s                          0x00000000   Number         0  dcheck1.o ABSOLUTE
    <Anonymous Symbol>                       0x00003090   Data          60  dcheck1.o(.debug_frame)
    x$fpl$dcheck1                            0x00397ac8   Thumb Code    28  dcheck1.o(x$fpl$dcheck1)
    ../../dcmpin.s                           0x00000000   Number         0  dcmpin.o ABSOLUTE
    <Anonymous Symbol>                       0x000030cc   Data          96  dcmpin.o(.debug_frame)
    x$fpl$dcmpinfnan                         0x00397ae4   Thumb Code   108  dcmpin.o(x$fpl$dcmpinfnan)
    dcmp_neg                                 0x00397b24   ARM Code       0  dcmpin.o(x$fpl$dcmpinfnan)
    dcmp_clear_v                             0x00397b30   ARM Code       0  dcmpin.o(x$fpl$dcmpinfnan)
    dcmp_found_NaN                           0x00397b40   ARM Code       0  dcmpin.o(x$fpl$dcmpinfnan)
    ../../dleqf.s                            0x00000000   Number         0  dleqf.o ABSOLUTE
    x$fpl$dleqf                              0x00398408   Thumb Code   132  dleqf.o(x$fpl$dleqf)
    <Anonymous Symbol>                       0x0000312c   Data          96  dleqf.o(.debug_frame)
    _dcmple_check_NaNInf_pos                 0x0039842c   ARM Code       0  dleqf.o(x$fpl$dleqf)
    _dcmple_negative                         0x00398444   ARM Code       0  dleqf.o(x$fpl$dleqf)
    _dcmple_check_NaNInf_neg                 0x00398464   ARM Code       0  dleqf.o(x$fpl$dleqf)
    dcmple_InfNaN                            0x00398480   ARM Code       0  dleqf.o(x$fpl$dleqf)
    ../../dsqrt.s                            0x00000000   Number         0  dsqrt.o ABSOLUTE
    <Anonymous Symbol>                       0x0000318c   Data         160  dsqrt.o(.debug_frame)
    x$fpl$dsqrt                              0x00398a44   Thumb Code   504  dsqrt.o(x$fpl$dsqrt)
    dsqrt_dosqrt                             0x00398a78   ARM Code       0  dsqrt.o(x$fpl$dsqrt)
    dsqrt_ready                              0x00398a90   ARM Code       0  dsqrt.o(x$fpl$dsqrt)
    dsqrt_toploop                            0x00398aac   ARM Code       0  dsqrt.o(x$fpl$dsqrt)
    dsqrt_mid_shortcut                       0x00398ae8   ARM Code       0  dsqrt.o(x$fpl$dsqrt)
    dsqrt_botloop                            0x00398af4   ARM Code       0  dsqrt.o(x$fpl$dsqrt)
    dsqrt_botloop_shortcut                   0x00398b14   ARM Code       0  dsqrt.o(x$fpl$dsqrt)
    dsqrt_zerodenorm                         0x00398b7c   ARM Code       0  dsqrt.o(x$fpl$dsqrt)
    dsqrt_naninf                             0x00398c08   ARM Code       0  dsqrt.o(x$fpl$dsqrt)
    dsqrt_ivo_pop                            0x00398c2c   ARM Code       0  dsqrt.o(x$fpl$dsqrt)
    ../../dunder.s                           0x00000000   Number         0  dunder.o ABSOLUTE
    x$fpl$dunder                             0x00398c3c   Thumb Code   568  dunder.o(x$fpl$dunder)
    <Anonymous Symbol>                       0x0000322c   Data         168  dunder.o(.debug_frame)
    dunder_hiloword                          0x00398cd0   ARM Code       0  dunder.o(x$fpl$dunder)
    dunder_hiword                            0x00398cf0   ARM Code       0  dunder.o(x$fpl$dunder)
    dunder_roundbit                          0x00398d14   ARM Code       0  dunder.o(x$fpl$dunder)
    dunder_stickyonly                        0x00398d2c   ARM Code       0  dunder.o(x$fpl$dunder)
    dunder_round                             0x00398d38   ARM Code       0  dunder.o(x$fpl$dunder)
    dunder_roundup                           0x00398d58   ARM Code       0  dunder.o(x$fpl$dunder)
    dunder_rerounded                         0x00398d60   ARM Code       0  dunder.o(x$fpl$dunder)
    dunder_roundeven                         0x00398d88   ARM Code       0  dunder.o(x$fpl$dunder)
    dunder_trap                              0x00398e6c   ARM Code       0  dunder.o(x$fpl$dunder)
    ../../except.s                           0x00000000   Number         0  except.o ABSOLUTE
    <Anonymous Symbol>                       0x000032d4   Data         120  except.o(.debug_frame)
    x$fpl$exception                          0x00398e74   Thumb Code   360  except.o(x$fpl$exception)
    overflow                                 0x00398f10   ARM Code       0  except.o(x$fpl$exception)
    underflow                                0x00398f20   ARM Code       0  except.o(x$fpl$exception)
    divide_by_zero                           0x00398f30   ARM Code       0  except.o(x$fpl$exception)
    inexact                                  0x00398f4c   ARM Code       0  except.o(x$fpl$exception)
    return_result                            0x00398f5c   ARM Code       0  except.o(x$fpl$exception)
    ovf_return                               0x00398f64   ARM Code       0  except.o(x$fpl$exception)
    return_Inf                               0x00398f70   ARM Code       0  except.o(x$fpl$exception)
    return_NaN                               0x00398f90   ARM Code       0  except.o(x$fpl$exception)
    prototype_double_Inf                     0x00398fb8   Data           0  except.o(x$fpl$exception)
    prototype_single_Inf                     0x00398fc8   Data           0  except.o(x$fpl$exception)
    prototype_double_NaN                     0x00398fd0   Data           0  except.o(x$fpl$exception)
    prototype_single_NaN                     0x00398fd8   Data           0  except.o(x$fpl$exception)
    ../../fcheck.s                           0x00000000   Number         0  fcheck.o ABSOLUTE
    <Anonymous Symbol>                       0x0000334c   Data          60  fcheck.o(.debug_frame)
    x$fpl$fcheck                             0x00399048   Thumb Code    40  fcheck.o(x$fpl$fcheck)
    ../../fcheck1.s                          0x00000000   Number         0  fcheck1.o ABSOLUTE
    x$fpl$fcheck1                            0x00399070   Thumb Code    28  fcheck1.o(x$fpl$fcheck1)
    <Anonymous Symbol>                       0x00003388   Data          60  fcheck1.o(.debug_frame)
    ../../fcmpin.s                           0x00000000   Number         0  fcmpin.o ABSOLUTE
    <Anonymous Symbol>                       0x000033c4   Data          80  fcmpin.o(.debug_frame)
    x$fpl$dcmpinfnan                         0x00397b50   Thumb Code    80  fcmpin.o(x$fpl$dcmpinfnan)
    fcmp_neg                                 0x00397b7c   ARM Code       0  fcmpin.o(x$fpl$dcmpinfnan)
    fcmp_clear_v                             0x00397b84   ARM Code       0  fcmpin.o(x$fpl$dcmpinfnan)
    fcmp_found_NaN                           0x00397b94   ARM Code       0  fcmpin.o(x$fpl$dcmpinfnan)
    ../../fnorm2.s                           0x00000000   Number         0  fnorm2_clz.o ABSOLUTE
    <Anonymous Symbol>                       0x00003414   Data          80  fnorm2_clz.o(.debug_frame)
    x$fpl$fnorm2                             0x00399300   Thumb Code    84  fnorm2_clz.o(x$fpl$fnorm2)
    fnorm_b                                  0x00399338   ARM Code       0  fnorm2_clz.o(x$fpl$fnorm2)
    ../../funder.s                           0x00000000   Number         0  funder.o ABSOLUTE
    x$fpl$funder                             0x00399354   Thumb Code   372  funder.o(x$fpl$funder)
    <Anonymous Symbol>                       0x00003464   Data         128  funder.o(.debug_frame)
    _funder_rerounded                        0x003993f4   ARM Code       0  funder.o(x$fpl$funder)
    _funder_exact                            0x003993fc   ARM Code       0  funder.o(x$fpl$funder)
    _funder_lostmant                         0x0039940c   ARM Code       0  funder.o(x$fpl$funder)
    _funder_returninx                        0x00399438   ARM Code       0  funder.o(x$fpl$funder)
    funder_trap                              0x003994c0   ARM Code       0  funder.o(x$fpl$funder)
    ../../cos_i.c                            0x00000000   Number         0  cos_i.o ABSOLUTE
    .text                                    0x00395534   ARM Code       0  cos_i.o(.text)
    .constdata                               0x00399adc   Data           0  cos_i.o(.constdata)
    C$debug_frame4                           0x000034e4   Data           0  cos_i.o(.debug_frame)
    .constdata$1                             0x00399adc   Data           0  cos_i.o(.constdata)
    C                                        0x00399adc   Data          48  cos_i.o(.constdata)
    ../../poly.c                             0x00000000   Number         0  poly.o ABSOLUTE
    .text                                    0x0039570c   ARM Code       0  poly.o(.text)
    C$debug_frame4                           0x00003554   Data           0  poly.o(.debug_frame)
    ../../qnan.c                             0x00000000   Number         0  qnan.o ABSOLUTE
    .constdata                               0x00399b0c   Data           0  qnan.o(.constdata)
    .constdata$166                           0x00399b0c   Data           0  qnan.o(.constdata)
    ../../rred.c                             0x00000000   Number         0  rred.o ABSOLUTE
    .constdata                               0x00399b14   Data           0  rred.o(.constdata)
    .text                                    0x00395868   ARM Code       0  rred.o(.text)
    C$debug_frame5                           0x000035b4   Data           0  rred.o(.debug_frame)
    .constdata$1                             0x00399b14   Data           0  rred.o(.constdata)
    reductions                               0x00399b14   Data         144  rred.o(.constdata)
    pio2s@__ieee754_rem_pio2_1               0x00399ba4   Data           8  rred.o(.constdata)
    ../../scalbn_i.c                         0x00000000   Number         0  scalbn_i.o ABSOLUTE
    i._Copysign                              0x003975a0   ARM Code       0  scalbn_i.o(i._Copysign)
    .text                                    0x00395d4c   ARM Code       0  scalbn_i.o(.text)
    C$debug_frame4                           0x00003620   Data           0  scalbn_i.o(.debug_frame)
    C$debug_frame5                           0x0000367c   Data           0  scalbn_i.o(.debug_frame)
    _Copysign                                0x003975a0   ARM Code      16  scalbn_i.o(i._Copysign)
    ../../sin_i.c                            0x00000000   Number         0  sin_i.o ABSOLUTE
    .text                                    0x00395e68   ARM Code       0  sin_i.o(.text)
    .constdata                               0x00399bd4   Data           0  sin_i.o(.constdata)
    C$debug_frame4                           0x000036b8   Data           0  sin_i.o(.debug_frame)
    .constdata$1                             0x00399bd4   Data           0  sin_i.o(.constdata)
    S                                        0x00399bd4   Data          40  sin_i.o(.constdata)
    ../../scanf.c                            0x00000000   Number         0  _chval.o ABSOLUTE
    .text                                    0x00395fe4   Thumb Code     0  _chval.o(.text)
    C$debug_frame22                          0x00003728   Data           0  _chval.o(.debug_frame)
    ../../printf.c                           0x00000000   Number         0  _fp_disp.o ABSOLUTE
    .text                                    0x00396008   Thumb Code     0  _fp_disp.o(.text)
    C$debug_frame19                          0x00003764   Data           0  _fp_disp.o(.debug_frame)
    _fp_digits                               0x00396008   Thumb Code   542  _fp_disp.o(.text)
    _fp_addexp                               0x00396534   Thumb Code   108  _fp_disp.o(.text)
    ../../scanf.c                            0x00000000   Number         0  _strtoul.o ABSOLUTE
    .text                                    0x003965a0   Thumb Code     0  _strtoul.o(.text)
    C$debug_frame22                          0x0000382c   Data           0  _strtoul.o(.debug_frame)
    ../../unhosted.s                         0x00000000   Number         0  callvia.o ABSOLUTE
    .text                                    0x00396658   Thumb Code    16  callvia.o(.text)
    ../../longlong.s                         0x00000000   Number         0  lladdls.o ABSOLUTE
    .text                                    0x00396668   Thumb Code    16  lladdls.o(.text)
    <Anonymous Symbol>                       0x00003894   Data          68  lladdls.o(.debug_frame)
    ../../longlong.s                         0x00000000   Number         0  llcmpge.o ABSOLUTE
    .text                                    0x00396678   Thumb Code    16  llcmpge.o(.text)
    <Anonymous Symbol>                       0x000038d8   Data          68  llcmpge.o(.debug_frame)
    ../../longlong.s                         0x00000000   Number         0  llcmpu.o ABSOLUTE
    <Anonymous Symbol>                       0x0000391c   Data          68  llcmpu.o(.debug_frame)
    .text                                    0x00396688   Thumb Code    16  llcmpu.o(.text)
    ../../longlong.s                         0x00000000   Number         0  llmullu.o ABSOLUTE
    .text                                    0x00396698   Thumb Code    12  llmullu.o(.text)
    <Anonymous Symbol>                       0x00003960   Data          60  llmullu.o(.debug_frame)
    ../../longlong.s                         0x00000000   Number         0  llneg.o ABSOLUTE
    <Anonymous Symbol>                       0x0000399c   Data          68  llneg.o(.debug_frame)
    .text                                    0x003966a4   Thumb Code    16  llneg.o(.text)
    ../../longlong.s                         0x00000000   Number         0  lludiv10.o ABSOLUTE
    <Anonymous Symbol>                       0x000039e0   Data          96  lludiv10.o(.debug_frame)
    .text                                    0x003966b4   Thumb Code   164  lludiv10.o(.text)
    ../../longlong.s                         0x00000000   Number         0  llushr.o ABSOLUTE
    <Anonymous Symbol>                       0x00003a40   Data          72  llushr.o(.debug_frame)
    .text                                    0x00396758   Thumb Code    44  llushr.o(.text)
    ../../angel/rt.s                         0x00000000   Number         0  rt_ctype_table.o ABSOLUTE
    .text                                    0x00396784   Thumb Code    28  rt_ctype_table.o(.text)
    <Anonymous Symbol>                       0x00003a88   Data          80  rt_ctype_table.o(.debug_frame)
    ../../angel/rt.s                         0x00000000   Number         0  rt_raise.o ABSOLUTE
    <Anonymous Symbol>                       0x00003ad8   Data          84  rt_raise.o(.debug_frame)
    .text                                    0x003967a0   Thumb Code    32  rt_raise.o(.text)
    ../../division.s                         0x00000000   Number         0  rt_sdiv.o ABSOLUTE
    .text                                    0x003967c0   Thumb Code   216  rt_sdiv.o(.text)
    <Anonymous Symbol>                       0x00003b2c   Data          68  rt_sdiv.o(.debug_frame)
    ../../scanf2.s                           0x00000000   Number         0  scanf2.o ABSOLUTE
    x$fpl$scanf2                             0x003995ac   Thumb Code     8  scanf2.o(x$fpl$scanf2)
    <Anonymous Symbol>                       0x00003b70   Data          60  scanf2.o(.debug_frame)
    ../../dfix.s                             0x00000000   Number         0  dfix.o ABSOLUTE
    x$fpl$dfix                               0x003981f0   Thumb Code   168  dfix.o(x$fpl$dfix)
    <Anonymous Symbol>                       0x00003bac   Data         116  dfix.o(.debug_frame)
    dfix_negative                            0x00398230   ARM Code       0  dfix.o(x$fpl$dfix)
    dfix_ivo                                 0x00398268   ARM Code       0  dfix.o(x$fpl$dfix)
    ../../drem.s                             0x00000000   Number         0  drem.o ABSOLUTE
    x$fpl$drem                               0x0039874c   Thumb Code   760  drem.o(x$fpl$drem)
    <Anonymous Symbol>                       0x00003c20   Data         156  drem.o(.debug_frame)
    drem_normalised                          0x0039877c   ARM Code       0  drem.o(x$fpl$drem)
    drem_loop                                0x00398794   ARM Code       0  drem.o(x$fpl$drem)
    drem_subtract                            0x0039879c   ARM Code       0  drem.o(x$fpl$drem)
    drem_nonegate                            0x003987b8   ARM Code       0  drem.o(x$fpl$drem)
    drem_renormsmall                         0x003987c0   ARM Code       0  drem.o(x$fpl$drem)
    drem_renormbig                           0x003987d8   ARM Code       0  drem.o(x$fpl$drem)
    drem_loopdone                            0x00398850   ARM Code       0  drem.o(x$fpl$drem)
    drem_roundeven                           0x00398880   ARM Code       0  drem.o(x$fpl$drem)
    drem_done                                0x0039888c   ARM Code       0  drem.o(x$fpl$drem)
    drem_zero                                0x003988b0   ARM Code       0  drem.o(x$fpl$drem)
    drem_zerodenorm                          0x003988c4   ARM Code       0  drem.o(x$fpl$drem)
    drem_done_op2                            0x003988e0   ARM Code       0  drem.o(x$fpl$drem)
    drem_renorm_op1                          0x003988ec   ARM Code       0  drem.o(x$fpl$drem)
    drem_renorm_op2                          0x00398968   ARM Code       0  drem.o(x$fpl$drem)
    drem_naninf                              0x003989e4   ARM Code       0  drem.o(x$fpl$drem)
    drem_ivo_pop                             0x00398a30   ARM Code       0  drem.o(x$fpl$drem)
    drem_ivo                                 0x00398a34   ARM Code       0  drem.o(x$fpl$drem)
    ../../retnan.s                           0x00000000   Number         0  retnan.o ABSOLUTE
    x$fpl$retnan                             0x00399510   Thumb Code   156  retnan.o(x$fpl$retnan)
    <Anonymous Symbol>                       0x00003cbc   Data          92  retnan.o(.debug_frame)
    return_zero                              0x0039956c   ARM Code       0  retnan.o(x$fpl$retnan)
    return_umaxint                           0x00399578   ARM Code       0  retnan.o(x$fpl$retnan)
    return_fpnan                             0x00399590   ARM Code       0  retnan.o(x$fpl$retnan)
    ../../trapv.s                            0x00000000   Number         0  trapv.o ABSOLUTE
    x$fpl$trapveneer                         0x003995b4   Thumb Code   172  trapv.o(x$fpl$trapveneer)
    <Anonymous Symbol>                       0x00003d18   Data         132  trapv.o(.debug_frame)
    cmp_specflags_unordered                  0x00399600   ARM Code       0  trapv.o(x$fpl$trapveneer)
    cmp_generic                              0x0039960c   ARM Code       0  trapv.o(x$fpl$trapveneer)
    cmp_boolean                              0x00399654   ARM Code       0  trapv.o(x$fpl$trapveneer)
    ../../signal.c                           0x00000000   Number         0  __raise.o ABSOLUTE
    .text                                    0x00396898   Thumb Code     0  __raise.o(.text)
    C$debug_frame15                          0x00003d9c   Data           0  __raise.o(.debug_frame)
    ../../fenv.c                             0x00000000   Number         0  _fptrap.o ABSOLUTE
    .text                                    0x003968dc   Thumb Code     0  _fptrap.o(.text)
    C$debug_frame15                          0x00003df4   Data           0  _fptrap.o(.debug_frame)
    ../../bigflt.c                           0x00000000   Number         0  bigflt0.o ABSOLUTE
    .text                                    0x00396920   Thumb Code     0  bigflt0.o(.text)
    .constdata                               0x00399bfc   Data           0  bigflt0.o(.constdata)
    C$debug_frame3                           0x00003e54   Data           0  bigflt0.o(.debug_frame)
    .constdata$1                             0x00399bfc   Data           0  bigflt0.o(.constdata)
    tenpwrs_x@_btod_etento_0                 0x00399bfc   Data          12  bigflt0.o(.constdata)
    tenpwrs_i@_btod_etento_1                 0x00399c38   Data          16  bigflt0.o(.constdata)
    ../../btod.s                             0x00000000   Number         0  btod.o ABSOLUTE
    CL$$btodstuff                            0x00396c7c   Thumb Code  2276  btod.o(CL$$btodstuff)
    <Anonymous Symbol>                       0x00003ebc   Data         568  btod.o(.debug_frame)
    _mul_uncommon                            0x00396da8   ARM Code       0  btod.o(CL$$btodstuff)
    _div_special_case                        0x00396de0   ARM Code       0  btod.o(CL$$btodstuff)
    _muld_uncommon                           0x00396e18   ARM Code       0  btod.o(CL$$btodstuff)
    _divd_special_case                       0x00396e50   ARM Code       0  btod.o(CL$$btodstuff)
    _e2e_underflow_dealtwith                 0x00396e68   ARM Code       0  btod.o(CL$$btodstuff)
    _e2e_round_by_C                          0x00396e70   ARM Code       0  btod.o(CL$$btodstuff)
    _e2e_return_value                        0x00396eac   ARM Code       0  btod.o(CL$$btodstuff)
    _e2e_exact_or_tied                       0x00396eb8   ARM Code       0  btod.o(CL$$btodstuff)
    _e2e_underflow                           0x00396ec4   ARM Code       0  btod.o(CL$$btodstuff)
    _e2e_underflow_huge                      0x00396f14   ARM Code       0  btod.o(CL$$btodstuff)
    _Mult_64x32                              0x003970cc   ARM Code       0  btod.o(CL$$btodstuff)
    _Mult_32xX                               0x00397144   ARM Code       0  btod.o(CL$$btodstuff)
    _Mult_32x32                              0x003971c4   ARM Code       0  btod.o(CL$$btodstuff)
    _Recip_Table                             0x003974dc   Data           0  btod.o(CL$$btodstuff)
    ../../longlong.s                         0x00000000   Number         0  lladdlu.o ABSOLUTE
    .text                                    0x00396a10   Thumb Code    16  lladdlu.o(.text)
    <Anonymous Symbol>                       0x000040f4   Data          68  lladdlu.o(.debug_frame)
    ../../longlong.s                         0x00000000   Number         0  llmul3m.o ABSOLUTE
    <Anonymous Symbol>                       0x00004138   Data          84  llmul3m.o(.debug_frame)
    .text                                    0x00396a20   Thumb Code    32  llmul3m.o(.text)
    ../../division.s                         0x00000000   Number         0  rtsdiv10.o ABSOLUTE
    .text                                    0x00396a40   Thumb Code    68  rtsdiv10.o(.text)
    <Anonymous Symbol>                       0x0000418c   Data          68  rtsdiv10.o(.debug_frame)
    ../../scanf.c                            0x00000000   Number         0  scanf_nofp.o ABSOLUTE
    .text                                    0x00396a84   Thumb Code     0  scanf_nofp.o(.text)
    C$debug_frame22                          0x000041d0   Data           0  scanf_nofp.o(.debug_frame)
    ../../angel/sys.s                        0x00000000   Number         0  sys_exit.o ABSOLUTE
    <Anonymous Symbol>                       0x0000420c   Data          68  sys_exit.o(.debug_frame)
    .text                                    0x00396a8c   Thumb Code    28  sys_exit.o(.text)
    ../../istatus.s                          0x00000000   Number         0  istatus.o ABSOLUTE
    x$fpl$ieeestatus                         0x003994c8   Thumb Code    64  istatus.o(x$fpl$ieeestatus)
    <Anonymous Symbol>                       0x00004250   Data          80  istatus.o(.debug_frame)
    ../../classify.c                         0x00000000   Number         0  classify.o ABSOLUTE
    .text                                    0x00396aa8   ARM Code       0  classify.o(.text)
    C$debug_frame5                           0x000042a0   Data           0  classify.o(.debug_frame)
    ../../dtoi.c                             0x00000000   Number         0  dtoi.o ABSOLUTE
    .text                                    0x00396af0   ARM Code       0  dtoi.o(.text)
    C$debug_frame4                           0x000042dc   Data           0  dtoi.o(.debug_frame)
    ../../signal.c                           0x00000000   Number         0  defsig.o ABSOLUTE
    .text                                    0x00396b48   Thumb Code     0  defsig.o(.text)
    .constdata                               0x00399c90   Data           0  defsig.o(.constdata)
    C$debug_frame15                          0x00004328   Data           0  defsig.o(.debug_frame)
    .constdata$1                             0x00399c90   Data           0  defsig.o(.constdata)
    messages@__default_signal_handler_0      0x00399c90   Data          23  defsig.o(.constdata)
    ../../unhosted.s                         0x00000000   Number         0  sigdefs.o ABSOLUTE
    ../../angel/sys.s                        0x00000000   Number         0  use_semi.o ABSOLUTE
    .text                                    0x00396c60   Thumb Code     8  use_semi.o(.text)
    <Anonymous Symbol>                       0x0000437c   Data          68  use_semi.o(.debug_frame)
    ../../angel/sysapp.c                     0x00000000   Number         0  sys_wrch.o ABSOLUTE
    .text                                    0x00396c68   Thumb Code     0  sys_wrch.o(.text)
    C$debug_frame14                          0x000043c0   Data           0  sys_wrch.o(.debug_frame)

    Global Symbols

    Symbol Name                              Value     Ov Type        Size  Object(Section)

    BuildAttributes$$THUMB_ISAv2$M$E$P$PE$A:L22$X:L11$S22$IW$USESV6$~STKCKD$USESV7$~SHL$OSPACE$PRES8 0x00000000   Number         0  anon$$obj.o ABSOLUTE
    __fpl_infinity                            - Undefined Weak Reference
    __sigvec_lookup                           - Undefined Weak Reference
    _fp_trap_big                              - Undefined Weak Reference
    Image$$RO$$Base                          0x0038701c   Number         0  anon$$obj.o ABSOLUTE
    dynamic_start                            0x0038701c   ARM Code       0  dynamic.o(DYNAMIC_ENGINE_AS)
    dynamic_file_dele                        0x00387054   ARM Code      12  dynamic_file.o(.text)
    dynamic_file_read                        0x00387060   ARM Code     140  dynamic_file.o(.text)
    dynamic_file_write                       0x003870ec   ARM Code     192  dynamic_file.o(.text)
    dynamic_image_size                       0x003871d0   ARM Code      32  dynamic_init.o(.text)
    dynamic_main                             0x003871f0   ARM Code     512  dynamic_init.o(.text)
    dynamic_cmd_find_cmd_mode                0x003873f0   ARM Code     128  dynamic_msg_at.o(.text)
    dynamic_cmd_uart_write                   0x00387470   ARM Code      32  dynamic_msg_at.o(.text)
    dynamic_cmd_ask                          0x00387490   ARM Code      36  dynamic_msg_at.o(.text)
    dynamic_cmd_reset                        0x003874b4   ARM Code     176  dynamic_msg_at.o(.text)
    dynamic_cmd_debug                        0x00387564   ARM Code     224  dynamic_msg_at.o(.text)
    dynamic_cmd_atd                          0x00387644   ARM Code     212  dynamic_msg_at.o(.text)
    dynamic_cmd_gpslog                       0x00387718   ARM Code     204  dynamic_msg_at.o(.text)
    dynamic_cmd_sr                           0x003877e4   ARM Code     668  dynamic_msg_at.o(.text)
    dynamic_cmd_resetinfo                    0x00387a80   ARM Code     704  dynamic_msg_at.o(.text)
    dynamic_cmd_format                       0x00387d40   ARM Code     164  dynamic_msg_at.o(.text)
    dynamic_cmd_ip                           0x00387de4   ARM Code     392  dynamic_msg_at.o(.text)
    dynamic_cmd_factoy                       0x00387f6c   ARM Code     184  dynamic_msg_at.o(.text)
    dynamic_cmd_devid                        0x00388024   ARM Code     368  dynamic_msg_at.o(.text)
    dynamic_cmd_report_mode                  0x00388194   ARM Code     280  dynamic_msg_at.o(.text)
    dynamic_cmd_parse                        0x003882ac   ARM Code     636  dynamic_msg_at.o(.text)
    dynamic_cmd_uart_callback                0x00388528   ARM Code      20  dynamic_msg_at.o(.text)
    dynamic_cmd_init                         0x0038853c   ARM Code     532  dynamic_msg_at.o(.text)
    dynamic_msg_at_init                      0x00388750   ARM Code      32  dynamic_msg_at.o(.text)
    dynamic_sys_get_info                     0x00388778   ARM Code       8  dynamic_reset.o(.text)
    dynamic_sys_info_save                    0x00388780   ARM Code      84  dynamic_reset.o(.text)
    dynamic_sys_info_reset                   0x003887d4   ARM Code      76  dynamic_reset.o(.text)
    dynamic_reset_now                        0x00388820   ARM Code     104  dynamic_reset.o(.text)
    dynamic_start_reset_wait                 0x00388888   ARM Code      12  dynamic_reset.o(.text)
    dynamic_start_reset                      0x00388894   ARM Code     276  dynamic_reset.o(.text)
    dynamic_poweroff_now                     0x003889a8   ARM Code       8  dynamic_reset.o(.text)
    dynamic_reset_delay                      0x003889b0   ARM Code       8  dynamic_reset.o(.text)
    dynamic_reset_check_pro                  0x003889b8   ARM Code      88  dynamic_reset.o(.text)
    dynamic_reset_delay_check                0x00388a10   ARM Code      16  dynamic_reset.o(.text)
    dynamic_reset_init                       0x00388a20   ARM Code     412  dynamic_reset.o(.text)
    dynamic_telephony_call_cb                0x00388bbc   ARM Code      92  dynamic_telephony.o(.text)
    dynamic_telephony_init                   0x00388c18   ARM Code      32  dynamic_telephony.o(.text)
    dynamic_sms_list_is_empty                0x00388c40   ARM Code      28  dynamic_sms.o(.text)
    dynamic_sms_save                         0x00388c5c   ARM Code      92  dynamic_sms.o(.text)
    dynamic_sms_list_push                    0x00388cb8   ARM Code     272  dynamic_sms.o(.text)
    dynamic_sms_list_add                     0x00388dc8   ARM Code     228  dynamic_sms.o(.text)
    dynamic_sms_list_pop                     0x00388eac   ARM Code     164  dynamic_sms.o(.text)
    dynamic_sms_list_reset                   0x00388f50   ARM Code      24  dynamic_sms.o(.text)
    dynamic_sms_list_init                    0x00388f68   ARM Code      88  dynamic_sms.o(.text)
    dynamic_sms_task                         0x00388fc0   ARM Code     348  dynamic_sms.o(.text)
    dynamic_sms_send_cb                      0x0038911c   ARM Code     184  dynamic_sms.o(.text)
    dynamic_sms_recv_cb                      0x003891d4   ARM Code     116  dynamic_sms.o(.text)
    dynamic_sms_init                         0x00389248   ARM Code      60  dynamic_sms.o(.text)
    dynamic_gps_set_log                      0x00389290   ARM Code      12  dynamic_gps.o(.text)
    ang_is_qujian                            0x0038929c   ARM Code     120  dynamic_gps.o(.text)
    dynamic_gps_get_pow_state                0x00389314   ARM Code      12  dynamic_gps.o(.text)
    dynamic_gps_is_fix                       0x00389320   ARM Code      36  dynamic_gps.o(.text)
    dynamic_gps_get_info                     0x00389344   ARM Code       8  dynamic_gps.o(.text)
    dynamic_gps_check_inflection             0x0038934c   ARM Code     244  dynamic_gps.o(.text)
    dynamic_gps_is_inflection_point          0x00389440   ARM Code      12  dynamic_gps.o(.text)
    gps_get_radian                           0x0038944c   ARM Code      76  dynamic_gps.o(.text)
    dynamic_gps_get_distance                 0x00389498   ARM Code     464  dynamic_gps.o(.text)
    dynamic_gps_get_nmea                     0x00389668   ARM Code       8  dynamic_gps.o(.text)
    dynamic_gps_put_bytes                    0x00389670   ARM Code      24  dynamic_gps.o(.text)
    dynamic_gps_save_endgps                  0x00389688   ARM Code     148  dynamic_gps.o(.text)
    dynamic_gps_recv_cb                      0x0038971c   ARM Code    1096  dynamic_gps.o(.text)
    dynamic_gps_aid_task                     0x00389b64   ARM Code     280  dynamic_gps.o(.text)
    dynamic_gps_pow_ctrl                     0x00389c7c   ARM Code     304  dynamic_gps.o(.text)
    dynamic_gps_task                         0x00389dac   ARM Code     328  dynamic_gps.o(.text)
    dynamic_gps_pow_init                     0x00389ef4   ARM Code      32  dynamic_gps.o(.text)
    dynamic_gps_init                         0x00389f14   ARM Code     196  dynamic_gps.o(.text)
    dynamic_i2c_write_byte                   0x00389fd8   ARM Code      40  dynamic_sensor.o(.text)
    dynamic_i2c_read_xyz                     0x0038a000   ARM Code     100  dynamic_sensor.o(.text)
    dynamic_sensor_read_xyz                  0x0038a064   ARM Code       4  dynamic_sensor.o(.text)
    dynamic_sensor_vib_3min_clr              0x0038a068   ARM Code      16  dynamic_sensor.o(.text)
    dynamic_sensor_vib_in_3min               0x0038a078   ARM Code      12  dynamic_sensor.o(.text)
    dynamic_sensor_value_count               0x0038a084   ARM Code     328  dynamic_sensor.o(.text)
    dynamic_sensor_clr_vib                   0x0038a1cc   ARM Code      12  dynamic_sensor.o(.text)
    dynamic_sensor_count_for_accon           0x0038a1d8   ARM Code      12  dynamic_sensor.o(.text)
    dynamic_sensor_cnfig                     0x0038a1e4   ARM Code     280  dynamic_sensor.o(.text)
    dynamic_sensor_init                      0x0038a2fc   ARM Code      48  dynamic_sensor.o(.text)
    dynamic_sensor_task                      0x0038a32c   ARM Code     476  dynamic_sensor.o(.text)
    dynamic_sensor_get_id                    0x0038a508   ARM Code      12  dynamic_sensor.o(.text)
    dynamic_malloc_malloc                    0x0038a514   ARM Code      92  dynamic_common.o(.text)
    dynamic_big_endian_pack_short            0x0038a570   ARM Code      24  dynamic_common.o(.text)
    dynamic_big_endian_pack_int              0x0038a588   ARM Code      32  dynamic_common.o(.text)
    dynamic_big_endian_transm_short          0x0038a5a8   ARM Code      20  dynamic_common.o(.text)
    dynamic_checksum_xor                     0x0038a5bc   ARM Code      32  dynamic_common.o(.text)
    dynamic_find_byte_pos                    0x0038a5dc   ARM Code      48  dynamic_common.o(.text)
    dynamic_dec_to_bcd                       0x0038a60c   ARM Code      32  dynamic_common.o(.text)
    xy_alm_check_mode                        0x0038a62c   ARM Code      92  xy_alm.o(.text)
    xy_alm_pro                               0x0038a688   ARM Code     252  xy_alm.o(.text)
    xy_alm_low_bat_alm                       0x0038a784   ARM Code       8  xy_alm.o(.text)
    xy_alm_pow_break_alm                     0x0038a78c   ARM Code       8  xy_alm.o(.text)
    xy_alm_speed_alm                         0x0038a794   ARM Code       8  xy_alm.o(.text)
    xy_alm_move_alm                          0x0038a79c   ARM Code       8  xy_alm.o(.text)
    xy_alm_acc_alm                           0x0038a7a4   ARM Code       8  xy_alm.o(.text)
    xy_alm_vib_alm                           0x0038a7ac   ARM Code       8  xy_alm.o(.text)
    xy_alm_anti_thrief_position              0x0038a7b4   ARM Code     176  xy_alm.o(.text)
    xy_alm_antitheft_crl                     0x0038a864   ARM Code     132  xy_alm.o(.text)
    xy_acc_init                              0x0038a8e8   ARM Code      92  xy_alm.o(.text)
    xy_acc_check                             0x0038a944   ARM Code     340  xy_alm.o(.text)
    xy_alm_pow_init                          0x0038aa98   ARM Code      52  xy_alm.o(.text)
    xy_alm_pow_check                         0x0038aacc   ARM Code     556  xy_alm.o(.text)
    xy_realy_init                            0x0038acf8   ARM Code      76  xy_alm.o(.text)
    xy_alm_low_bat                           0x0038ad44   ARM Code     440  xy_alm.o(.text)
    xy_alm_move_init                         0x0038aefc   ARM Code      28  xy_alm.o(.text)
    xy_alm_move_check                        0x0038af18   ARM Code     376  xy_alm.o(.text)
    xy_alm_speed_check                       0x0038b090   ARM Code     208  xy_alm.o(.text)
    xy_alm_anti_thrief_check                 0x0038b160   ARM Code     144  xy_alm.o(.text)
    xy_alm_task                              0x0038b1f0   ARM Code      64  xy_alm.o(.text)
    xy_key_cb                                0x0038b230   ARM Code      48  xy_alm.o(.text)
    xy_alm_init                              0x0038b260   ARM Code      52  xy_alm.o(.text)
    xy_led_task                              0x0038b298   ARM Code     216  xy_led.o(.text)
    xy_led_init                              0x0038b370   ARM Code     152  xy_led.o(.text)
    xy_get_para_from_ascii                   0x0038b42c   ARM Code     136  xy_main.o(.text)
    xy_get_info                              0x0038b4b4   ARM Code       8  xy_main.o(.text)
    xy_info_backup_save                      0x0038b4bc   ARM Code      80  xy_main.o(.text)
    xy_info_save                             0x0038b50c   ARM Code     108  xy_main.o(.text)
    xy_apn_dns_init                          0x0038b578   ARM Code     144  xy_main.o(.text)
    xy_t808_param_reset                      0x0038b608   ARM Code     308  xy_main.o(.text)
    xy_info_reset                            0x0038b73c   ARM Code     484  xy_main.o(.text)
    xy_main_init                             0x0038b920   ARM Code     548  xy_main.o(.text)
    xy_sms_user_check                        0x0038bb44   ARM Code     256  xy_sms.o(.text)
    xy_sms_link_google_map                   0x0038bc44   ARM Code     120  xy_sms.o(.text)
    xy_sms_alm_assem                         0x0038bcbc   ARM Code    1944  xy_sms.o(.text)
    xy_cmd_gpssnr                            0x0038c454   ARM Code     340  xy_sms.o(.text)
    xy_soc_set_ack_fail_cnt                  0x0038c5b0   ARM Code      12  xy_soc.o(.text)
    xy_soc_get_ack_fail_cnt                  0x0038c5bc   ARM Code      12  xy_soc.o(.text)
    xy_soc_get_reg_ok_state                  0x0038c5c8   ARM Code      12  xy_soc.o(.text)
    xy_soc_get_connect_ok_state              0x0038c5d4   ARM Code      12  xy_soc.o(.text)
    xy_soc_get_auth_ok_state                 0x0038c5e0   ARM Code      12  xy_soc.o(.text)
    xy_soc_close                             0x0038c5ec   ARM Code     132  xy_soc.o(.text)
    xy_soc_clear_link_info                   0x0038c670   ARM Code      60  xy_soc.o(.text)
    xy_assemble_by_rules                     0x0038c6ac   ARM Code     124  xy_soc.o(.text)
    xy_deassmble_by_rules                    0x0038c728   ARM Code     140  xy_soc.o(.text)
    xy_soc_get_socid                         0x0038c7b4   ARM Code      12  xy_soc.o(.text)
    xy_soc_close_delay                       0x0038c7c0   ARM Code      56  xy_soc.o(.text)
    xy_soc_heart_wait_ask                    0x0038c7f8   ARM Code     152  xy_soc.o(.text)
    xy_soc_heart_task                        0x0038c890   ARM Code     212  xy_soc.o(.text)
    xy_soc_heart_reset                       0x0038c964   ARM Code      80  xy_soc.o(.text)
    xy_soc_send                              0x0038c9b4   ARM Code     160  xy_soc.o(.text)
    xy_soc_data_send                         0x0038ca54   ARM Code      24  xy_soc.o(.text)
    xy_soc_data_empty                        0x0038ca6c   ARM Code      40  xy_soc.o(.text)
    xy_soc_data_pop                          0x0038ca94   ARM Code      44  xy_soc.o(.text)
    xy_soc_data_in                           0x0038cac0   ARM Code     476  xy_soc.o(.text)
    xy_soc_list_data_send                    0x0038cc9c   ARM Code     428  xy_soc.o(.text)
    xy_soc_recv_task                         0x0038ce48   ARM Code     528  xy_soc.o(.text)
    xy_soc_recv_data                         0x0038d058   ARM Code     204  xy_soc.o(.text)
    xy_soc_task                              0x0038d124   ARM Code    1448  xy_soc.o(.text)
    xy_soc_cb                                0x0038d6cc   ARM Code     616  xy_soc.o(.text)
    xy_soc_heart_ask                         0x0038d934   ARM Code      16  xy_soc.o(.text)
    xy_soc_err_check                         0x0038d944   ARM Code      80  xy_soc.o(.text)
    xy_soc_data_init                         0x0038d994   ARM Code     176  xy_soc.o(.text)
    xy_soc_data_reset                        0x0038da44   ARM Code     100  xy_soc.o(.text)
    xy_soc_data_save                         0x0038daa8   ARM Code     148  xy_soc.o(.text)
    xy_soc_init                              0x0038db3c   ARM Code     232  xy_soc.o(.text)
    xy_telephony_sos_call_connect            0x0038dc24   ARM Code      40  xy_telephony.o(.text)
    xy_get_sos_state                         0x0038dc4c   ARM Code      28  xy_telephony.o(.text)
    xy_telephony_sos_call                    0x0038dc68   ARM Code     408  xy_telephony.o(.text)
    xy_call_alm                              0x0038de00   ARM Code     200  xy_telephony.o(.text)
    xy_telephony_user_call                   0x0038dec8   ARM Code       4  xy_telephony.o(.text)
    xy_telephony_state_cb                    0x0038decc   ARM Code     248  xy_telephony.o(.text)
    xy_track_dataup_task                     0x0038dfd4   ARM Code     524  xy_track.o(.text)
    xy_track_wakeup                          0x0038e1e0   ARM Code      60  xy_track.o(.text)
    xy_track_set_mode                        0x0038e21c   ARM Code     140  xy_track.o(.text)
    xy_track_mode_check                      0x0038e2a8   ARM Code     408  xy_track.o(.text)
    xy_track_sms_set_mode                    0x0038e440   ARM Code     432  xy_track.o(.text)
    xy_track_mode_init                       0x0038e5f0   ARM Code      64  xy_track.o(.text)
    xy_track_init                            0x0038e630   ARM Code      72  xy_track.o(.text)
    xy_watchdog_task                         0x0038e680   ARM Code      36  xy_watchdog.o(.text)
    xy_watchdog_init                         0x0038e6a4   ARM Code     108  xy_watchdog.o(.text)
    CommCharToDec                            0x0038e72c   ARM Code      52  xy_t808_protocol.o(.text)
    CommHexStrToHex                          0x0038e760   ARM Code     108  xy_t808_protocol.o(.text)
    xy_data_pack_reg                         0x0038e7cc   ARM Code     216  xy_t808_protocol.o(.text)
    xy_soc_data_pack                         0x0038f4bc   ARM Code    1496  xy_t808_protocol.o(.text)
    xy_soc_regster_up                        0x0038fa94   ARM Code      64  xy_t808_protocol.o(.text)
    xy_soc_login_up                          0x0038fad4   ARM Code      64  xy_t808_protocol.o(.text)
    xy_soc_heart_up                          0x0038fb14   ARM Code      60  xy_t808_protocol.o(.text)
    xy_soc_ask_up                            0x0038fb50   ARM Code      72  xy_t808_protocol.o(.text)
    xy_soc_alm_assem                         0x0038fb98   ARM Code     168  xy_t808_protocol.o(.text)
    xy_soc_location_up                       0x0038fc40   ARM Code      68  xy_t808_protocol.o(.text)
    xy_soc_data_deal                         0x0038fc84   ARM Code    1652  xy_t808_protocol.o(.text)
    dynamic_load_apis                        0x0039252c   ARM Code      36  dynamic_api.o(.text)
    _sprintf                                 0x00392554   Thumb Code    60  _sprintf.o(.text)
    atoi                                     0x00392598   Thumb Code    34  atoi.o(.text)
    setlocale                                0x0039264a   Thumb Code   264  locale.o(.text)
    __16__rt_memclr                          0x00392770   Thumb Code    72  rt_memclr.o(.text)
    __rt_memclr                              0x00392774   ARM Code       0  rt_memclr.o(.text)
    _memset                                  0x00392778   ARM Code       0  rt_memclr.o(.text)
    __16__rt_memclr_w                        0x003927b8   Thumb Code    92  rt_memclr_w.o(.text)
    __rt_memclr_w                            0x003927bc   ARM Code       0  rt_memclr_w.o(.text)
    _memset_w                                0x003927c0   ARM Code       0  rt_memclr_w.o(.text)
    __16__rt_memcpy                          0x00392814   Thumb Code   184  rt_memcpy.o(.text)
    __rt_memcpy                              0x00392818   ARM Code       0  rt_memcpy.o(.text)
    __16__rt_memcpy_w                        0x003928cc   Thumb Code   112  rt_memcpy_w.o(.text)
    __rt_memcpy_w                            0x003928d0   ARM Code       0  rt_memcpy_w.o(.text)
    _memcpy_lastbytes                        0x0039291c   ARM Code       0  rt_memcpy_w.o(.text)
    __16__rt_memset                          0x0039293c   Thumb Code    24  rt_memset.o(.text)
    __rt_memset                              0x00392940   ARM Code       0  rt_memset.o(.text)
    __16__rt_udiv                            0x00392954   Thumb Code   196  rt_udiv.o(.text)
    __rt_udiv                                0x00392958   ARM Code       0  rt_udiv.o(.text)
    __16__rt_udiv10                          0x00392a18   Thumb Code    48  rtudiv10.o(.text)
    __rt_udiv10                              0x00392a1c   ARM Code       0  rtudiv10.o(.text)
    sprintf                                  0x00392a48   Thumb Code    60  sprintf.o(.text)
    _sscanf                                  0x00392a8c   Thumb Code    54  sscanfn.o(.text)
    __16strcmp                               0x00392ad0   Thumb Code   160  strcmp.o(.text)
    strcmp                                   0x00392ad4   ARM Code       0  strcmp.o(.text)
    strlen                                   0x00392b70   Thumb Code    70  strlen.o(.text)
    strncmp                                  0x00392bbc   Thumb Code    76  strncmp.o(.text)
    strncpy                                  0x00392c0c   Thumb Code    80  strncpy.o(.text)
    strstr                                   0x00392c60   Thumb Code    40  strstr.o(.text)
    __16__rt_uread4                          0x00392c88   Thumb Code    36  uread4.o(.text)
    __rt_uread4                              0x00392c8c   ARM Code       0  uread4.o(.text)
    __16__rt_uwrite4                         0x00392cac   Thumb Code    36  uwrite4.o(.text)
    __rt_uwrite4                             0x00392cb0   ARM Code       0  uwrite4.o(.text)
    __softfp_asin                            0x00392cd0   ARM Code    1040  asin.o(.text)
    __softfp_cos                             0x003930e0   ARM Code     224  cos.o(.text)
    __softfp_pow                             0x003931c0   ARM Code    3804  pow.o(.text)
    __softfp_sin                             0x0039409c   ARM Code     236  sin.o(.text)
    __softfp_sqrt                            0x00394188   ARM Code     116  sqrt.o(.text)
    __vfprintf                               0x003941fc   Thumb Code  1428  __vfpntf.o(.text)
    __read_errno                             0x00394b28   Thumb Code    14  _rserrno.o(.text)
    __set_errno                              0x00394b36   Thumb Code    16  _rserrno.o(.text)
    __vfscanf                                0x00394e50   Thumb Code  1250  _scanf.o(.text)
    _sputc                                   0x00395334   Thumb Code    14  _sputc.o(.text)
    _serror                                  0x00395342   Thumb Code     4  _sputc.o(.text)
    _get_lc_collate                          0x00395348   Thumb Code    36  lc_collate_c.o(.text)
    _get_lc_ctype                            0x00395374   Thumb Code    36  lc_ctype_c.o(.text)
    _get_lc_monetary                         0x003953a0   Thumb Code    36  lc_monetary_c.o(.text)
    _get_lc_numeric                          0x003953cc   Thumb Code    36  lc_numeric_c.o(.text)
    _get_lc_time                             0x003953f8   Thumb Code    36  lc_time_c.o(.text)
    __16__user_libspace                      0x00395424   Thumb Code    12  libspace.o(.text)
    __user_libspace                          0x00395428   ARM Code       0  libspace.o(.text)
    __16__rt_div0                            0x00395434   Thumb Code    16  rt_div0.o(.text)
    __rt_div0                                0x00395438   ARM Code       0  rt_div0.o(.text)
    __16__rt_errno_addr                      0x00395444   Thumb Code    20  rt_errno_addr.o(.text)
    __rt_errno_addr                          0x00395448   ARM Code       0  rt_errno_addr.o(.text)
    __16__rt_fp_status_addr                  0x00395458   Thumb Code    24  rt_fp_status_addr.o(.text)
    __rt_fp_status_addr                      0x0039545c   ARM Code       0  rt_fp_status_addr.o(.text)
    _sgetc                                   0x00395470   Thumb Code    34  sgetc.o(.text)
    _sbackspace                              0x00395492   Thumb Code    38  sgetc.o(.text)
    strtol                                   0x003954b8   Thumb Code   120  strtol.o(.text)
    __kernel_cos                             0x00395534   ARM Code     472  cos_i.o(.text)
    __kernel_poly                            0x0039570c   ARM Code     348  poly.o(.text)
    __ieee754_rem_pio2                       0x00395868   ARM Code    1252  rred.o(.text)
    __mathlib_scalbn                         0x00395d4c   ARM Code     284  scalbn_i.o(.text)
    __kernel_sin                             0x00395e68   ARM Code     380  sin_i.o(.text)
    _chval                                   0x00395fe4   Thumb Code    34  _chval.o(.text)
    _fp_display                              0x00396226   Thumb Code   782  _fp_disp.o(.text)
    _strtoul                                 0x003965a0   Thumb Code   184  _strtoul.o(.text)
    __call_via_r0                            0x00396658   Thumb Code     4  callvia.o(.text)
    __call_via_r1                            0x0039665a   Thumb Code     4  callvia.o(.text)
    __call_via_r2                            0x0039665c   Thumb Code     4  callvia.o(.text)
    __call_via_r3                            0x0039665e   Thumb Code     4  callvia.o(.text)
    __call_via_r4                            0x00396660   Thumb Code     4  callvia.o(.text)
    __call_via_r5                            0x00396662   Thumb Code     4  callvia.o(.text)
    __call_via_r6                            0x00396664   Thumb Code     4  callvia.o(.text)
    __call_via_r7                            0x00396666   Thumb Code     4  callvia.o(.text)
    __16_ll_addls                            0x00396668   Thumb Code    16  lladdls.o(.text)
    _ll_addls                                0x0039666c   ARM Code       0  lladdls.o(.text)
    __16_ll_cmpge                            0x00396678   Thumb Code    16  llcmpge.o(.text)
    _ll_cmpge                                0x0039667c   ARM Code       0  llcmpge.o(.text)
    __16_ll_cmpu                             0x00396688   Thumb Code    16  llcmpu.o(.text)
    _ll_cmpu                                 0x0039668c   ARM Code       0  llcmpu.o(.text)
    __16_ll_mullu                            0x00396698   Thumb Code    12  llmullu.o(.text)
    _ll_mullu                                0x0039669c   ARM Code       0  llmullu.o(.text)
    __16_ll_neg                              0x003966a4   Thumb Code    16  llneg.o(.text)
    _ll_neg                                  0x003966a8   ARM Code       0  llneg.o(.text)
    __16_ll_udiv10                           0x003966b4   Thumb Code   164  lludiv10.o(.text)
    _ll_udiv10                               0x003966b8   ARM Code       0  lludiv10.o(.text)
    __16_ll_ushift_r                         0x00396758   Thumb Code    44  llushr.o(.text)
    _ll_ushift_r                             0x0039675c   ARM Code       0  llushr.o(.text)
    __16__rt_ctype_table                     0x00396784   Thumb Code    28  rt_ctype_table.o(.text)
    __rt_ctype_table                         0x00396788   ARM Code       0  rt_ctype_table.o(.text)
    __rt_raise                               0x003967a0   Thumb Code    32  rt_raise.o(.text)
    __32__rt_raise                           0x003967a4   ARM Code       0  rt_raise.o(.text)
    __16__rt_sdiv                            0x003967c0   Thumb Code   216  rt_sdiv.o(.text)
    __rt_sdiv                                0x003967c4   ARM Code       0  rt_sdiv.o(.text)
    __raise                                  0x00396898   Thumb Code    58  __raise.o(.text)
    _fp_trap                                 0x003968dc   Thumb Code    66  _fptrap.o(.text)
    _btod_etento                             0x00396920   Thumb Code   222  bigflt0.o(.text)
    __16_ll_addlu                            0x00396a10   Thumb Code    16  lladdlu.o(.text)
    _ll_addlu                                0x00396a14   ARM Code       0  lladdlu.o(.text)
    __16_ll_mul                              0x00396a20   Thumb Code    32  llmul3m.o(.text)
    _ll_mul                                  0x00396a24   ARM Code       0  llmul3m.o(.text)
    __16__rt_sdiv10                          0x00396a40   Thumb Code    68  rtsdiv10.o(.text)
    __rt_sdiv10                              0x00396a44   ARM Code       0  rtsdiv10.o(.text)
    _scanf_dont_rd_real                      0x00396a84   Thumb Code     6  scanf_nofp.o(.text)
    __16_sys_exit                            0x00396a8c   Thumb Code    24  sys_exit.o(.text)
    _sys_exit                                0x00396a90   ARM Code       0  sys_exit.o(.text)
    __mathlib_classify                       0x00396aa8   ARM Code      68  classify.o(.text)
    __support_dtoi                           0x00396af0   ARM Code      88  dtoi.o(.text)
    __default_signal_handler                 0x00396b48   Thumb Code   150  defsig.o(.text)
    __I_use_semihosting_swi                  0x00396c60   Thumb Code     8  use_semi.o(.text)
    __semihosting_swi_guard                  0x00396c60   Thumb Code     0  use_semi.o(.text)
    __32__I_use_semihosting_swi              0x00396c64   ARM Code       0  use_semi.o(.text)
    _ttywrch                                 0x00396c68   Thumb Code    18  sys_wrch.o(.text)
    __16_btod_d2e                            0x00396c7c   Thumb Code    60  btod.o(CL$$btodstuff)
    _btod_d2e                                0x00396c80   ARM Code       0  btod.o(CL$$btodstuff)
    __16_d2e_norm_op1                        0x00396cb8   Thumb Code   108  btod.o(CL$$btodstuff)
    _d2e_norm_op1                            0x00396cbc   ARM Code       0  btod.o(CL$$btodstuff)
    __16_d2e_denorm_low                      0x00396d24   Thumb Code    88  btod.o(CL$$btodstuff)
    _d2e_denorm_low                          0x00396d28   ARM Code       0  btod.o(CL$$btodstuff)
    __16_btod_emul                           0x00396d7c   Thumb Code    56  btod.o(CL$$btodstuff)
    _btod_emul                               0x00396d80   ARM Code       0  btod.o(CL$$btodstuff)
    __16_btod_ediv                           0x00396db4   Thumb Code    56  btod.o(CL$$btodstuff)
    _btod_ediv                               0x00396db8   ARM Code       0  btod.o(CL$$btodstuff)
    __16_btod_emuld                          0x00396dec   Thumb Code    56  btod.o(CL$$btodstuff)
    _btod_emuld                              0x00396df0   ARM Code       0  btod.o(CL$$btodstuff)
    __16_btod_edivd                          0x00396e24   Thumb Code    56  btod.o(CL$$btodstuff)
    _btod_edivd                              0x00396e28   ARM Code       0  btod.o(CL$$btodstuff)
    __16_e2e                                 0x00396e5c   Thumb Code   224  btod.o(CL$$btodstuff)
    _e2e                                     0x00396e60   ARM Code       0  btod.o(CL$$btodstuff)
    __16_e2d                                 0x00396f3c   Thumb Code   100  btod.o(CL$$btodstuff)
    _e2d                                     0x00396f40   ARM Code       0  btod.o(CL$$btodstuff)
    __16__btod_mult_common                   0x00396fa0   Thumb Code   620  btod.o(CL$$btodstuff)
    __btod_mult_common                       0x00396fa4   ARM Code       0  btod.o(CL$$btodstuff)
    __16__btod_div_common                    0x0039720c   Thumb Code   720  btod.o(CL$$btodstuff)
    __btod_div_common                        0x00397210   ARM Code       0  btod.o(CL$$btodstuff)
    $Ven$AT$L$PI$$__set_errno                0x00397560   ARM Code       0  anon$$obj.o(Veneer$$Code)
    $Ven$AT$L$PI$$_fp_display                0x00397570   ARM Code       0  anon$$obj.o(Veneer$$Code)
    $Ven$AT$L$PI$$_scanf_dont_rd_real        0x00397580   ARM Code       0  anon$$obj.o(Veneer$$Code)
    __16_dadd                                0x003975b0   Thumb Code   496  daddsub_clz.o(x$fpl$dadd)
    _dadd                                    0x003975b4   ARM Code       0  daddsub_clz.o(x$fpl$dadd)
    __fpl_inf_dadd                           0x00397758   ARM Code       0  daddsub_clz.o(x$fpl$dadd)
    __16_drsb                                0x003977a0   Thumb Code    72  daddsub_clz.o(x$fpl$dadd)
    _drsb                                    0x003977a4   ARM Code       0  daddsub_clz.o(x$fpl$dadd)
    __16_dsub                                0x003977e8   Thumb Code   652  daddsub_clz.o(x$fpl$dadd)
    _dsub                                    0x003977ec   ARM Code       0  daddsub_clz.o(x$fpl$dadd)
    __fpl_inf_dsub                           0x00397a2c   ARM Code       0  daddsub_clz.o(x$fpl$dadd)
    __16__fpl_dcheck_NaN2                    0x00397a84   Thumb Code    68  dcheck.o(x$fpl$dcheck)
    __fpl_dcheck_NaN2                        0x00397a88   ARM Code       0  dcheck.o(x$fpl$dcheck)
    __16__fpl_dcheck_NaN1                    0x00397ac8   Thumb Code    28  dcheck1.o(x$fpl$dcheck1)
    __fpl_dcheck_NaN1                        0x00397acc   ARM Code       0  dcheck1.o(x$fpl$dcheck1)
    __16__fpl_dcmp_InfNaN                    0x00397ae4   Thumb Code   108  dcmpin.o(x$fpl$dcmpinfnan)
    __fpl_dcmp_InfNaN                        0x00397ae8   ARM Code       0  dcmpin.o(x$fpl$dcmpinfnan)
    __fpl_inf_dcmp                           0x00397b0c   ARM Code       0  dcmpin.o(x$fpl$dcmpinfnan)
    __fpl_fcmp_InfNaN                        0x00397b50   Thumb Code    80  fcmpin.o(x$fpl$dcmpinfnan)
    __32__fpl_fcmp_InfNaN                    0x00397b54   ARM Code       0  fcmpin.o(x$fpl$dcmpinfnan)
    __fpl_inf_fcmp                           0x00397b68   ARM Code       0  fcmpin.o(x$fpl$dcmpinfnan)
    __16_drdiv                               0x00397ba0   Thumb Code    36  ddiv.o(x$fpl$ddiv)
    _drdiv                                   0x00397ba4   ARM Code       0  ddiv.o(x$fpl$ddiv)
    __16_ddiv                                0x00397bc4   Thumb Code   692  ddiv.o(x$fpl$ddiv)
    _ddiv                                    0x00397bc8   ARM Code       0  ddiv.o(x$fpl$ddiv)
    __fpl_inf_ddiv                           0x00397e34   ARM Code       0  ddiv.o(x$fpl$ddiv)
    __16ddiv_mantissas                       0x00397e78   Thumb Code   612  ddiv.o(x$fpl$ddiv)
    ddiv_mantissas                           0x00397e7c   ARM Code       0  ddiv.o(x$fpl$ddiv)
    __16_dcmpeq                              0x0039816c   Thumb Code   128  deqf.o(x$fpl$deqf)
    _dcmpeq                                  0x00398170   ARM Code       0  deqf.o(x$fpl$deqf)
    __16_dfix                                0x003981f0   Thumb Code   164  dfix.o(x$fpl$dfix)
    _dfix                                    0x003981f4   ARM Code       0  dfix.o(x$fpl$dfix)
    __fpl_inf_dfix                           0x0039828c   ARM Code       0  dfix.o(x$fpl$dfix)
    __16_dfixu                               0x00398298   Thumb Code   164  dfixu.o(x$fpl$dfixu)
    _dfixu                                   0x0039829c   ARM Code       0  dfixu.o(x$fpl$dfixu)
    __fpl_inf_dfixu                          0x00398334   ARM Code       0  dfixu.o(x$fpl$dfixu)
    __16_dfltu                               0x00398340   Thumb Code    16  dflt_clz.o(x$fpl$dflt)
    _dfltu                                   0x00398344   ARM Code       0  dflt_clz.o(x$fpl$dflt)
    __16_dflt                                0x00398350   Thumb Code    52  dflt_clz.o(x$fpl$dflt)
    _dflt                                    0x00398354   ARM Code       0  dflt_clz.o(x$fpl$dflt)
    __dflt_normalise                         0x00398364   ARM Code       0  dflt_clz.o(x$fpl$dflt)
    __16_dcmpge                              0x00398384   Thumb Code   128  dgeqf.o(x$fpl$dgeqf)
    _dcmpge                                  0x00398388   ARM Code       0  dgeqf.o(x$fpl$dgeqf)
    __16_dcmple                              0x00398408   Thumb Code   128  dleqf.o(x$fpl$dleqf)
    _dcmple                                  0x0039840c   ARM Code       0  dleqf.o(x$fpl$dleqf)
    __16_dmul                                0x0039848c   Thumb Code   692  dmul_mull.o(x$fpl$dmul)
    _dmul                                    0x00398490   ARM Code       0  dmul_mull.o(x$fpl$dmul)
    __fpl_inf_dmul                           0x00398714   ARM Code       0  dmul_mull.o(x$fpl$dmul)
    __16_drem                                0x0039874c   Thumb Code   752  drem.o(x$fpl$drem)
    _drem                                    0x00398750   ARM Code       0  drem.o(x$fpl$drem)
    __fpl_inf_drem                           0x00398a0c   ARM Code       0  drem.o(x$fpl$drem)
    __16_dsqrt                               0x00398a44   Thumb Code   500  dsqrt.o(x$fpl$dsqrt)
    _dsqrt                                   0x00398a48   ARM Code       0  dsqrt.o(x$fpl$dsqrt)
    __fpl_inf_dsqrt                          0x00398c1c   ARM Code       0  dsqrt.o(x$fpl$dsqrt)
    __16__dunder                             0x00398c3c   Thumb Code   360  dunder.o(x$fpl$dunder)
    __dunder                                 0x00398c40   ARM Code       0  dunder.o(x$fpl$dunder)
    __16__dunder_d                           0x00398da4   Thumb Code   208  dunder.o(x$fpl$dunder)
    __dunder_d                               0x00398da8   ARM Code       0  dunder.o(x$fpl$dunder)
    __16__fpl_exception                      0x00398e74   Thumb Code   324  except.o(x$fpl$exception)
    __fpl_exception                          0x00398e78   ARM Code       0  except.o(x$fpl$exception)
    __16_f2d                                 0x00398fdc   Thumb Code   104  f2d.o(x$fpl$f2d)
    _f2d                                     0x00398fe0   ARM Code       0  f2d.o(x$fpl$f2d)
    __fpl_inf_f2d                            0x00399038   ARM Code       0  f2d.o(x$fpl$f2d)
    __16__fpl_fcheck_NaN2                    0x00399048   Thumb Code    40  fcheck.o(x$fpl$fcheck)
    __fpl_fcheck_NaN2                        0x0039904c   ARM Code       0  fcheck.o(x$fpl$fcheck)
    __16__fpl_fcheck_NaN1                    0x00399070   Thumb Code    28  fcheck1.o(x$fpl$fcheck1)
    __fpl_fcheck_NaN1                        0x00399074   ARM Code       0  fcheck1.o(x$fpl$fcheck1)
    __16_ffix                                0x0039908c   Thumb Code   104  ffix.o(x$fpl$ffix)
    _ffix                                    0x00399090   ARM Code       0  ffix.o(x$fpl$ffix)
    __fpl_inf_ffix                           0x003990ec   ARM Code       0  ffix.o(x$fpl$ffix)
    __16_ffixu                               0x00399108   Thumb Code    92  ffixu.o(x$fpl$ffixu)
    _ffixu                                   0x0039910c   ARM Code       0  ffixu.o(x$fpl$ffixu)
    __fpl_inf_ffixu                          0x0039915c   ARM Code       0  ffixu.o(x$fpl$ffixu)
    __16_fcmpge                              0x00399168   Thumb Code   104  fgeqf.o(x$fpl$fgeqf)
    _fcmpge                                  0x0039916c   ARM Code       0  fgeqf.o(x$fpl$fgeqf)
    __16_fmul                                0x003991d4   Thumb Code   300  fmul_mull.o(x$fpl$fmul)
    _fmul                                    0x003991d8   ARM Code       0  fmul_mull.o(x$fpl$fmul)
    __fpl_inf_fmul                           0x003992e4   ARM Code       0  fmul_mull.o(x$fpl$fmul)
    __16__fpl_normalise2                     0x00399300   Thumb Code    84  fnorm2_clz.o(x$fpl$fnorm2)
    __fpl_normalise2                         0x00399304   ARM Code       0  fnorm2_clz.o(x$fpl$fnorm2)
    __16__funder                             0x00399354   Thumb Code   236  funder.o(x$fpl$funder)
    __funder                                 0x00399358   ARM Code       0  funder.o(x$fpl$funder)
    __16__funder_d                           0x00399440   Thumb Code   136  funder.o(x$fpl$funder)
    __funder_d                               0x00399444   ARM Code       0  funder.o(x$fpl$funder)
    __ieee_status                            0x003994c8   Thumb Code    60  istatus.o(x$fpl$ieeestatus)
    __32__ieee_status                        0x003994cc   ARM Code       0  istatus.o(x$fpl$ieeestatus)
    __16_fp_display_gate                     0x00399508   Thumb Code     8  printf1.o(x$fpl$printf1)
    __lib_sel_fp_printf                      0x00399508   Thumb Code     0  printf1.o(x$fpl$printf1)
    _fp_display_gate                         0x0039950c   ARM Code       0  printf1.o(x$fpl$printf1)
    __16__fpl_return_NaN                     0x00399510   Thumb Code   148  retnan.o(x$fpl$retnan)
    __fpl_return_NaN                         0x00399514   ARM Code       0  retnan.o(x$fpl$retnan)
    __16_fp_read_gate                        0x003995ac   Thumb Code     8  scanf2.o(x$fpl$scanf2)
    _fp_read_gate                            0x003995b0   ARM Code       0  scanf2.o(x$fpl$scanf2)
    __16_fp_trapveneer                       0x003995b4   Thumb Code    40  trapv.o(x$fpl$trapveneer)
    _fp_trapveneer                           0x003995b8   ARM Code       0  trapv.o(x$fpl$trapveneer)
    __16__fpl_cmpreturn                      0x003995dc   Thumb Code   132  trapv.o(x$fpl$trapveneer)
    __fpl_cmpreturn                          0x003995e0   ARM Code       0  trapv.o(x$fpl$trapveneer)
    __ctype                                  0x0039981d   Data         256  lc_ctype_c.o(.constdata)
    __mathlib_zero                           0x00399b0c   Data           8  qnan.o(.constdata)
    Image$$RO$$Limit                         0x00399dbc   Number         0  anon$$obj.o ABSOLUTE
    Image$$RW$$Base                          0x00399dbc   Number         0  anon$$obj.o ABSOLUTE
    s_vibsensity_cnt                         0x00399dc0   Data           3  dynamic_sensor.o(.data)
    s_vibsensity_dis                         0x00399dc8   Data           6  dynamic_sensor.o(.data)
    Image$$ZI$$Base                          0x00399dd8   Number         0  anon$$obj.o ABSOLUTE
    MSG_ID_DYNAMIC_BASE                      0x00399dd8   Data           4  dynamic_init.o(.bss)
    s_sensor_chipid                          0x0039afe8   Data           4  dynamic_sensor.o(.bss)
    s_tcp_rev_data                           0x0039b46c   Data        1464  xy_soc.o(.bss)
    dynamic_load_api                         0x0039ba40   Data           4  dynamic_api.o(.bss)
    dynamic_print                            0x0039ba44   Data           4  dynamic_api.o(.bss)
    dynamic_log_get_lvl                      0x0039ba48   Data           4  dynamic_api.o(.bss)
    dynamic_log_set_lvl                      0x0039ba4c   Data           4  dynamic_api.o(.bss)
    dynamic_log_hex                          0x0039ba50   Data           4  dynamic_api.o(.bss)
    dynamic_sys_reset                        0x0039ba54   Data           4  dynamic_api.o(.bss)
    dynamic_sys_shutdown                     0x0039ba58   Data           4  dynamic_api.o(.bss)
    dynamic_sys_get_power_on_reason          0x0039ba5c   Data           4  dynamic_api.o(.bss)
    dynamic_app_crc32                        0x0039ba60   Data           4  dynamic_api.o(.bss)
    dynamic_checksum                         0x0039ba64   Data           4  dynamic_api.o(.bss)
    dynamic_app_cntx_get                     0x0039ba68   Data           4  dynamic_api.o(.bss)
    dynamic_sleep_enable                     0x0039ba6c   Data           4  dynamic_api.o(.bss)
    dynamic_sleep_disable                    0x0039ba70   Data           4  dynamic_api.o(.bss)
    dynamic_sim_get_valid                    0x0039ba74   Data           4  dynamic_api.o(.bss)
    dynamic_find_short_pos                   0x0039ba78   Data           4  dynamic_api.o(.bss)
    dynamic_ucs2_wcsstr                      0x0039ba7c   Data           4  dynamic_api.o(.bss)
    dynamic_ascii2bcd                        0x0039ba80   Data           4  dynamic_api.o(.bss)
    dynamic_hex2ascii                        0x0039ba84   Data           4  dynamic_api.o(.bss)
    dynamic_sys_sleep_task                   0x0039ba88   Data           4  dynamic_api.o(.bss)
    mmi_ucs2strlen                           0x0039ba8c   Data           4  dynamic_api.o(.bss)
    mmi_ucs2cpy                              0x0039ba90   Data           4  dynamic_api.o(.bss)
    mmi_ucs2cmp                              0x0039ba94   Data           4  dynamic_api.o(.bss)
    mmi_ucs2ncmp                             0x0039ba98   Data           4  dynamic_api.o(.bss)
    mmi_ucs2ncpy                             0x0039ba9c   Data           4  dynamic_api.o(.bss)
    mmi_asc_to_ucs2                          0x0039baa0   Data           4  dynamic_api.o(.bss)
    dynamic_timer_start                      0x0039baa4   Data           4  dynamic_api.o(.bss)
    dynamic_timer_stop                       0x0039baa8   Data           4  dynamic_api.o(.bss)
    dynamic_timer_is_runing                  0x0039baac   Data           4  dynamic_api.o(.bss)
    dynamic_time_get_build_date_time         0x0039bab0   Data           4  dynamic_api.o(.bss)
    dynamic_time_get_systime                 0x0039bab4   Data           4  dynamic_api.o(.bss)
    dynamic_time_set_systime                 0x0039bab8   Data           4  dynamic_api.o(.bss)
    dynamic_kal_create_timer                 0x0039babc   Data           4  dynamic_api.o(.bss)
    dynamic_kal_set_timer                    0x0039bac0   Data           4  dynamic_api.o(.bss)
    dynamic_kal_cancel_timer                 0x0039bac4   Data           4  dynamic_api.o(.bss)
    dynamic_kal_get_systicks                 0x0039bac8   Data           4  dynamic_api.o(.bss)
    dynamic_kal_milli_secs_to_ticks          0x0039bacc   Data           4  dynamic_api.o(.bss)
    dynamic_kal_ticks_to_milli_secs          0x0039bad0   Data           4  dynamic_api.o(.bss)
    dynamic_time_utc_to_rtc                  0x0039bad4   Data           4  dynamic_api.o(.bss)
    dynamic_time_rtc_to_utc_with_default_tz  0x0039bad8   Data           4  dynamic_api.o(.bss)
    dynamic_time_utc_to_rtc_with_default_tz  0x0039badc   Data           4  dynamic_api.o(.bss)
    dynamic_timer_time2sec                   0x0039bae0   Data           4  dynamic_api.o(.bss)
    dynamic_med_alloc_ext_mem                0x0039bae4   Data           4  dynamic_api.o(.bss)
    dynamic_med_free_ext_mem                 0x0039bae8   Data           4  dynamic_api.o(.bss)
    dynamic_malloc                           0x0039baec   Data           4  dynamic_api.o(.bss)
    dynamic_free                             0x0039baf0   Data           4  dynamic_api.o(.bss)
    dynamic_mem_left_size                    0x0039baf4   Data           4  dynamic_api.o(.bss)
    dynamic_queue_create                     0x0039baf8   Data           4  dynamic_api.o(.bss)
    dynamic_queue_destroy                    0x0039bafc   Data           4  dynamic_api.o(.bss)
    dynamic_queue_prepend                    0x0039bb00   Data           4  dynamic_api.o(.bss)
    dynamic_queue_is_full                    0x0039bb04   Data           4  dynamic_api.o(.bss)
    dynamic_queue_push                       0x0039bb08   Data           4  dynamic_api.o(.bss)
    dynamic_queue_pop                        0x0039bb0c   Data           4  dynamic_api.o(.bss)
    dynamic_queue_peek                       0x0039bb10   Data           4  dynamic_api.o(.bss)
    dynamic_uart_debug_port_callback_reg     0x0039bb14   Data           4  dynamic_api.o(.bss)
    dynamic_uart_req_read                    0x0039bb18   Data           4  dynamic_api.o(.bss)
    dynamic_uart_put_bytes                   0x0039bb1c   Data           4  dynamic_api.o(.bss)
    dynamic_uart_set_baudrate                0x0039bb20   Data           4  dynamic_api.o(.bss)
    dynamic_uart_close                       0x0039bb24   Data           4  dynamic_api.o(.bss)
    dynamic_uart_register                    0x0039bb28   Data           4  dynamic_api.o(.bss)
    dynamic_uart_open                        0x0039bb2c   Data           4  dynamic_api.o(.bss)
    dynamic_uart_configure                   0x0039bb30   Data           4  dynamic_api.o(.bss)
    dynamic_uart_turn_on_power               0x0039bb34   Data           4  dynamic_api.o(.bss)
    dynamic_gprs_get_apn_dns                 0x0039bb38   Data           4  dynamic_api.o(.bss)
    dynamic_gprs_set_apn_dns                 0x0039bb3c   Data           4  dynamic_api.o(.bss)
    dynamic_soc_send                         0x0039bb40   Data           4  dynamic_api.o(.bss)
    dynamic_soc_close                        0x0039bb44   Data           4  dynamic_api.o(.bss)
    dynamic_soc_connect                      0x0039bb48   Data           4  dynamic_api.o(.bss)
    dynamic_soc_find_connection              0x0039bb4c   Data           4  dynamic_api.o(.bss)
    dynamic_http_get_file                    0x0039bb50   Data           4  dynamic_api.o(.bss)
    dynamic_http_get_info                    0x0039bb54   Data           4  dynamic_api.o(.bss)
    dynamic_fs_open                          0x0039bb58   Data           4  dynamic_api.o(.bss)
    dynamic_fs_read                          0x0039bb5c   Data           4  dynamic_api.o(.bss)
    dynamic_fs_write                         0x0039bb60   Data           4  dynamic_api.o(.bss)
    dynamic_fs_seek                          0x0039bb64   Data           4  dynamic_api.o(.bss)
    dynamic_fs_get_file_position             0x0039bb68   Data           4  dynamic_api.o(.bss)
    dynamic_fs_truncate                      0x0039bb6c   Data           4  dynamic_api.o(.bss)
    dynamic_fs_flush                         0x0039bb70   Data           4  dynamic_api.o(.bss)
    dynamic_fs_close                         0x0039bb74   Data           4  dynamic_api.o(.bss)
    dynamic_fs_get_size                      0x0039bb78   Data           4  dynamic_api.o(.bss)
    dynamic_fs_delete                        0x0039bb7c   Data           4  dynamic_api.o(.bss)
    dynamic_fs_check                         0x0039bb80   Data           4  dynamic_api.o(.bss)
    dynamic_fs_rename                        0x0039bb84   Data           4  dynamic_api.o(.bss)
    dynamic_fs_create_dir                    0x0039bb88   Data           4  dynamic_api.o(.bss)
    dynamic_fs_delete_dir                    0x0039bb8c   Data           4  dynamic_api.o(.bss)
    dynamic_fs_check_dir                     0x0039bb90   Data           4  dynamic_api.o(.bss)
    dynamic_fs_get_free_space                0x0039bb94   Data           4  dynamic_api.o(.bss)
    dynamic_fs_get_total_space               0x0039bb98   Data           4  dynamic_api.o(.bss)
    dynamic_fs_format                        0x0039bb9c   Data           4  dynamic_api.o(.bss)
    dynamic_adc_get_channel_voltage          0x0039bba0   Data           4  dynamic_api.o(.bss)
    dynamic_adc_get_data                     0x0039bba4   Data           4  dynamic_api.o(.bss)
    dynamic_adc_get_chr_status               0x0039bba8   Data           4  dynamic_api.o(.bss)
    dynamic_adc_is_charge_full               0x0039bbac   Data           4  dynamic_api.o(.bss)
    dynamic_adc_vbat_percentage              0x0039bbb0   Data           4  dynamic_api.o(.bss)
    dynamic_telephony_call_status            0x0039bbb4   Data           4  dynamic_api.o(.bss)
    dynamic_telephony_call_cb_reg            0x0039bbb8   Data           4  dynamic_api.o(.bss)
    dynamic_telephony_sms_recv_reg           0x0039bbbc   Data           4  dynamic_api.o(.bss)
    dynamic_telephony_dial                   0x0039bbc0   Data           4  dynamic_api.o(.bss)
    dynamic_telephony_reject                 0x0039bbc4   Data           4  dynamic_api.o(.bss)
    dynamic_telephony_accept                 0x0039bbc8   Data           4  dynamic_api.o(.bss)
    dynamic_telephony_sms_send               0x0039bbcc   Data           4  dynamic_api.o(.bss)
    dynamic_telephony_sms_del_all            0x0039bbd0   Data           4  dynamic_api.o(.bss)
    dynamic_i2c_configure                    0x0039bbd4   Data           4  dynamic_api.o(.bss)
    dynamic_i2c_receive                      0x0039bbd8   Data           4  dynamic_api.o(.bss)
    dynamic_i2c_send                         0x0039bbdc   Data           4  dynamic_api.o(.bss)
    dynamic_lbs_get_info                     0x0039bbe0   Data           4  dynamic_api.o(.bss)
    dynamic_lbs_req                          0x0039bbe4   Data           4  dynamic_api.o(.bss)
    GPIO_ModeSetup                           0x0039bbe8   Data           4  dynamic_api.o(.bss)
    GPIO_InitIO                              0x0039bbec   Data           4  dynamic_api.o(.bss)
    GPIO_ReadIO                              0x0039bbf0   Data           4  dynamic_api.o(.bss)
    GPIO_WriteIO                             0x0039bbf4   Data           4  dynamic_api.o(.bss)
    GPIO_PullenSetup                         0x0039bbf8   Data           4  dynamic_api.o(.bss)
    GPIO_PullSelSetup                        0x0039bbfc   Data           4  dynamic_api.o(.bss)
    EINT_Set_Sensitivity                     0x0039bc00   Data           4  dynamic_api.o(.bss)
    EINT_Set_Polarity                        0x0039bc04   Data           4  dynamic_api.o(.bss)
    EINT_SW_Debounce_Modify                  0x0039bc08   Data           4  dynamic_api.o(.bss)
    EINT_Registration                        0x0039bc0c   Data           4  dynamic_api.o(.bss)
    EINT_UnMask                              0x0039bc10   Data           4  dynamic_api.o(.bss)
    EINT_Mask                                0x0039bc14   Data           4  dynamic_api.o(.bss)
    EINT_Set_HW_Debounce                     0x0039bc18   Data           4  dynamic_api.o(.bss)
    dynamic_msgbased_at_send                 0x0039bc1c   Data           4  dynamic_api.o(.bss)
    dynamic_msgbased_at_reg_cb               0x0039bc20   Data           4  dynamic_api.o(.bss)
    dynamic_audio_set_audio_mode             0x0039bc24   Data           4  dynamic_api.o(.bss)
    dynamic_audio_set_volume                 0x0039bc28   Data           4  dynamic_api.o(.bss)
    dynamic_record_cb_reg                    0x0039bc2c   Data           4  dynamic_api.o(.bss)
    dynamic_record_recv_data                 0x0039bc30   Data           4  dynamic_api.o(.bss)
    dynamic_record_start                     0x0039bc34   Data           4  dynamic_api.o(.bss)
    dynamic_record_stop                      0x0039bc38   Data           4  dynamic_api.o(.bss)
    dynamic_gps_recv_cb_reg                  0x0039bc3c   Data           4  dynamic_api.o(.bss)
    dynamic_gps_pow_crl                      0x0039bc40   Data           4  dynamic_api.o(.bss)
    dynamic_gps_get_state                    0x0039bc44   Data           4  dynamic_api.o(.bss)
    dynamic_gps_uart_write                   0x0039bc48   Data           4  dynamic_api.o(.bss)
    dynamic_gps_time_aid                     0x0039bc4c   Data           4  dynamic_api.o(.bss)
    dynamic_gps_refloc_aid                   0x0039bc50   Data           4  dynamic_api.o(.bss)
    dynamic_gps_epo_req                      0x0039bc54   Data           4  dynamic_api.o(.bss)
    dynamic_epo_is_valid                     0x0039bc58   Data           4  dynamic_api.o(.bss)
    dynamic_gps_epo_aiding                   0x0039bc5c   Data           4  dynamic_api.o(.bss)
    dynamic_gps_get_gps_info                 0x0039bc60   Data           4  dynamic_api.o(.bss)
    dynamic_gps_get_info_src                 0x0039bc64   Data           4  dynamic_api.o(.bss)
    Image$$RW$$Limit                         0x0039bcf4   Number         0  anon$$obj.o ABSOLUTE
    Image$$ZI$$Limit                         0x0039bcf4   Number         0  anon$$obj.o ABSOLUTE
    __SIG_IGN                                0xfffffffd   Number         0  sigdefs.o ABSOLUTE
    __SIG_ERR                                0xfffffffe   Number         0  sigdefs.o ABSOLUTE
    __SIG_DFL                                0xffffffff   Number         0  sigdefs.o ABSOLUTE


================================================================================

Image component sizes


      Code    RO Data    RW Data    ZI Data      Debug   Object Name

       544          0          0          4       2812   dynamic_init.o
      5748         76          4       1484      18892   xy_soc.o
       944          0          0          3       5512   xy_telephony.o
      1816          0          0        976       5872   xy_main.o
      7116         54          0          4      20892   xy_t808_protocol.o
       380          0          0          0      58220   dynamic_file.o
       404          0          2          0       1572   xy_led.o
      1340          0         16        112       7760   dynamic_sensor.o
        48          0          0          0          0   anon$$obj.o
      5000          0          0        964      17992   dynamic_msg_at.o
        56          0          0          0        284   dynamic.o
       280          0          0          0       4812   dynamic_common.o
       172          0          0          1       1720   xy_watchdog.o
      1708          0          0         16       5932   xy_track.o
      1616          0          0       2248       6972   dynamic_sms.o
       132          0          0          0       1160   dynamic_telephony.o
      1092          0          0        620       5744   dynamic_reset.o
      3400          0          1        772      12896   dynamic_gps.o
      2668         68          0          0       7524   xy_sms.o
      3180          0          0         64      12684   xy_alm.o

    ------------------------------------------------------------------------
     37644        198         23       7268     199252   Object Totals

    ------------------------------------------------------------------------

      Code    RO Data    RW Data    ZI Data      Debug   Library Member Name

        32          0          0          0         84   llmul3m.o
        72          0          0          0         60   classify.o
       164          0          0          0         84   strcmp.o
      3820        136          0          0        212   pow.o
       300          0          0          0        100   fmul_mull.o
       108          0          0          0         84   f2d.o
        16          0          0          0         68   llcmpu.o
        44         16          0          0         80   lc_collate_c.o
        80          0          0          0         80   fcmpin.o
        72          0          0          0         68   rt_memclr.o
         8          0          0          0         60   scanf_nofp.o
        92          0          0          0         84   rt_memclr_w.o
        68          0          0          0         96   _fptrap.o
        16          0          0          0          0   callvia.o
         8          0          0          0         68   use_semi.o
       568          0          0          0        168   dunder.o
        36          0          0          0         68   uread4.o
         8          0          0          0         60   printf1.o
       156          0          0          0         92   retnan.o
        36          0          0          0         68   uwrite4.o
        68          0          0          0        100   _sprintf.o
        16          0          0          0         68   llneg.o
      2276          0          0          0        568   btod.o
         0          8          0          0          0   qnan.o
        40          0          0          0         76   strstr.o
        16          0          0          0         68   llcmpge.o
        68          0          0          0         84   dcheck.o
        28          0          0          0         68   sys_exit.o
        76          0          0          0         76   strlen.o
        16          0          0         96         68   libspace.o
        68          0          0          0         68   rtsdiv10.o
       132          0          0          0         96   deqf.o
        88          0          0          0         76   dtoi.o
        20          0          0          0         80   sys_wrch.o
        32          0          0          0         84   rt_raise.o
       132          0          0          0         96   dleqf.o
       184          0          0          0         60   rt_memcpy.o
      1040         80          0          0        108   asin.o
        44          0          0          0         72   llushr.o
       172          0          0          0        132   trapv.o
        44        360          0          0         80   lc_time_c.o
       240        148          0          0        104   bigflt0.o
      1236          0          0          0        356   daddsub_clz.o
       372          0          0          0        128   funder.o
        32          0          0          0        116   _rserrno.o
        44         56          0          0         80   lc_monetary_c.o
        28          0          0          0         80   rt_ctype_table.o
       280        299          0          0         84   defsig.o
      1432          0          0          0        200   _fp_disp.o
        16          0          0          0         60   rt_div0.o
       168          0          0          0        116   dfixu.o
       184          0          0          0        104   _strtoul.o
       236          0          0          0         80   sin.o
        12          0          0          0         60   llmullu.o
        20          0          0          0         76   _sputc.o
       112          0          0          0         84   rt_memcpy_w.o
        24          0          0          0         80   rt_fp_status_addr.o
       300          0          0          0        152   scalbn_i.o
      1484          0          0          0        256   ddiv.o
        68          0          0          0        100   sprintf.o
        84          0          0          0         80   fnorm2_clz.o
        40          0          0          0         60   fcheck.o
       224          0          0          0         80   cos.o
        48          0          0          0         68   rtudiv10.o
      2348          0          0          0        160   __vfpntf.o
       112          0          0          0        100   ffixu.o
        72          0          0          0         76   sgetc.o
       436          1          0         42        148   locale.o
       168          0          0          0        116   dfix.o
       108          0          0          0        100   ffix.o
      8796          0          0        552        112   dynamic_api.o
        28          0          0          0         60   dcheck1.o
        36          0          0          0         60   _chval.o
        64          0          0          0         88   sscanfn.o
       380         40          0          0        112   sin_i.o
       360          0          0          0        120   except.o
        44         28          0          0         80   lc_numeric_c.o
       348          0          0          0         96   poly.o
       116          0          0          0         80   sqrt.o
      1252        192          0          0        108   rred.o
        68          0          0          0         88   __raise.o
       504          0          0          0        160   dsqrt.o
        28          0          0          0         60   fcheck1.o
       472         48          0          0        112   cos_i.o
        64          0          0          0         80   istatus.o
        16          0          0          0         68   lladdlu.o
        24          0          0          0         60   rt_memset.o
        80          0          0          0         80   strncmp.o
         8          0          0          0         60   scanf2.o
        16          0          0          0         68   lladdls.o
       760          0          0          0        156   drem.o
        36          0          0          0         88   atoi.o
       132          0          0          0         96   dgeqf.o
       704          0          0          0        128   dmul_mull.o
       108          0          0          0         96   dcmpin.o
       124          0          0          0        100   strtol.o
        84          0          0          0         84   strncpy.o
       164          0          0          0         96   lludiv10.o
       216          0          0          0         68   rt_sdiv.o
       196          0          0          0         68   rt_udiv.o
        68          0          0          0         88   dflt_clz.o
        44        272          0          0         80   lc_ctype_c.o
       108          0          0          0         84   fgeqf.o
      2028          0          0          0        156   _scanf.o
        20          0          0          0         80   rt_errno_addr.o

    ------------------------------------------------------------------------
     37688       1684          0        690      10336   Library Totals

    ------------------------------------------------------------------------

      Code    RO Data    RW Data    ZI Data      Debug   Library Name

      8348        504          0          0       1276   m_t_pu.l
      8796          0          0        552        112   lib.a
      8368          0          0          0       3492   f_t_p.l
     12176       1180          0        138       5456   c_t__un.l

    ------------------------------------------------------------------------
     37688       1684          0        690      10336   Library Totals

    ------------------------------------------------------------------------

================================================================================


      Code    RO Data    RW Data    ZI Data      Debug   

     75332       1882         23       7958     209588   Grand Totals

================================================================================

    Total RO  Size(Code + RO Data)                77214 (  75.40kB)
    Total RW  Size(RW Data + ZI Data)              7981 (   7.79kB)
    Total ROM Size(Code + RO Data + RW Data)      77237 (  75.43kB)

================================================================================

